
../bin/rfm_int_hww/hr20.elf:     file format elf32-avr

Sections:
Idx Name          Size      VMA       LMA       File off  Algn
  0 .data         0000001c  00800100  00003980  00003a54  2**0
                  CONTENTS, ALLOC, LOAD, DATA
  1 .text         00003980  00000000  00000000  000000d4  2**1
                  CONTENTS, ALLOC, LOAD, READONLY, CODE
  2 .bss          000001ae  0080011c  0080011c  00003a70  2**0
                  ALLOC
  3 .eeprom       00000164  00810000  00810000  00003a70  2**0
                  CONTENTS, ALLOC, LOAD, DATA
  4 .fuse         00000003  00820000  00820000  00003bd4  2**0
                  CONTENTS, ALLOC, LOAD, DATA
  5 .stab         0000060c  00000000  00000000  00003bd8  2**2
                  CONTENTS, READONLY, DEBUGGING
  6 .stabstr      00000035  00000000  00000000  000041e4  2**0
                  CONTENTS, READONLY, DEBUGGING
  7 .debug_aranges 00000180  00000000  00000000  00004219  2**0
                  CONTENTS, READONLY, DEBUGGING
  8 .debug_pubnames 00000bb5  00000000  00000000  00004399  2**0
                  CONTENTS, READONLY, DEBUGGING
  9 .debug_info   00004fd9  00000000  00000000  00004f4e  2**0
                  CONTENTS, READONLY, DEBUGGING
 10 .debug_abbrev 000015f6  00000000  00000000  00009f27  2**0
                  CONTENTS, READONLY, DEBUGGING
 11 .debug_line   00003ad1  00000000  00000000  0000b51d  2**0
                  CONTENTS, READONLY, DEBUGGING
 12 .debug_frame  000006a0  00000000  00000000  0000eff0  2**2
                  CONTENTS, READONLY, DEBUGGING
 13 .debug_str    00001591  00000000  00000000  0000f690  2**0
                  CONTENTS, READONLY, DEBUGGING
 14 .debug_loc    00001cfa  00000000  00000000  00010c21  2**0
                  CONTENTS, READONLY, DEBUGGING
 15 .debug_ranges 00000060  00000000  00000000  0001291b  2**0
                  CONTENTS, READONLY, DEBUGGING

Disassembly of section .text:

00000000 <__vectors>:
       0:	4a c1       	rjmp	.+660    	; 0x296 <__ctors_end>
       2:	00 00       	nop
       4:	65 c1       	rjmp	.+714    	; 0x2d0 <__bad_interrupt>
       6:	00 00       	nop
       8:	98 c2       	rjmp	.+1328   	; 0x53a <__vector_2>
       a:	00 00       	nop
       c:	0c 94 f0 11 	jmp	0x23e0	; 0x23e0 <__vector_3>
      10:	0c 94 dd 0d 	jmp	0x1bba	; 0x1bba <__vector_4>
      14:	0c 94 d0 0d 	jmp	0x1ba0	; 0x1ba0 <__vector_5>
      18:	5b c1       	rjmp	.+694    	; 0x2d0 <__bad_interrupt>
      1a:	00 00       	nop
      1c:	59 c1       	rjmp	.+690    	; 0x2d0 <__bad_interrupt>
      1e:	00 00       	nop
      20:	57 c1       	rjmp	.+686    	; 0x2d0 <__bad_interrupt>
      22:	00 00       	nop
      24:	55 c1       	rjmp	.+682    	; 0x2d0 <__bad_interrupt>
      26:	00 00       	nop
      28:	53 c1       	rjmp	.+678    	; 0x2d0 <__bad_interrupt>
      2a:	00 00       	nop
      2c:	47 c3       	rjmp	.+1678   	; 0x6bc <__vector_11>
      2e:	00 00       	nop
      30:	4f c1       	rjmp	.+670    	; 0x2d0 <__bad_interrupt>
      32:	00 00       	nop
      34:	0c 94 b5 1b 	jmp	0x376a	; 0x376a <__vector_13>
      38:	0c 94 7d 1b 	jmp	0x36fa	; 0x36fa <__vector_14>
      3c:	0c 94 41 1b 	jmp	0x3682	; 0x3682 <__vector_15>
      40:	47 c1       	rjmp	.+654    	; 0x2d0 <__bad_interrupt>
      42:	00 00       	nop
      44:	45 c1       	rjmp	.+650    	; 0x2d0 <__bad_interrupt>
      46:	00 00       	nop
      48:	43 c1       	rjmp	.+646    	; 0x2d0 <__bad_interrupt>
      4a:	00 00       	nop
      4c:	0c 94 f6 12 	jmp	0x25ec	; 0x25ec <__vector_19>
      50:	3f c1       	rjmp	.+638    	; 0x2d0 <__bad_interrupt>
      52:	00 00       	nop
      54:	3d c1       	rjmp	.+634    	; 0x2d0 <__bad_interrupt>
      56:	00 00       	nop
      58:	0c 94 3f 1b 	jmp	0x367e	; 0x367e <__vector_22>
      5c:	7a 0a       	sbc	r7, r26
      5e:	95 0c       	add	r9, r5
      60:	1f 0a       	sbc	r1, r31
      62:	95 0c       	add	r9, r5
      64:	95 0c       	add	r9, r5
      66:	9b 0b       	sbc	r25, r27
      68:	95 0c       	add	r9, r5
      6a:	95 0c       	add	r9, r5
      6c:	95 0c       	add	r9, r5
      6e:	95 0c       	add	r9, r5
      70:	86 0c       	add	r8, r6
      72:	95 0c       	add	r9, r5
      74:	95 0c       	add	r9, r5
      76:	95 0c       	add	r9, r5
      78:	95 0c       	add	r9, r5
      7a:	95 0c       	add	r9, r5
      7c:	33 0a       	sbc	r3, r19
      7e:	96 0a       	sbc	r9, r22
      80:	95 0c       	add	r9, r5
      82:	95 0c       	add	r9, r5
      84:	26 0a       	sbc	r2, r22
      86:	33 0a       	sbc	r3, r19
      88:	8a 0b       	sbc	r24, r26
      8a:	81 0c       	add	r8, r1
      8c:	d8 0a       	sbc	r13, r24
      8e:	75 0b       	sbc	r23, r21
      90:	81 0c       	add	r8, r1
      92:	81 0c       	add	r8, r1
      94:	81 0c       	add	r8, r1
      96:	c7 0a       	sbc	r12, r23
      98:	81 0c       	add	r8, r1
      9a:	81 0c       	add	r8, r1
      9c:	81 0c       	add	r8, r1
      9e:	81 0c       	add	r8, r1
      a0:	a7 0a       	sbc	r10, r23
      a2:	81 0c       	add	r8, r1
      a4:	81 0c       	add	r8, r1
      a6:	21 0b       	sbc	r18, r17
      a8:	81 0c       	add	r8, r1
      aa:	81 0c       	add	r8, r1
      ac:	3c 0b       	sbc	r19, r28
      ae:	ef 0a       	sbc	r14, r31
      b0:	81 0c       	add	r8, r1
      b2:	06 0b       	sbc	r16, r22
      b4:	81 0c       	add	r8, r1
      b6:	81 0c       	add	r8, r1
      b8:	b5 0a       	sbc	r11, r21
      ba:	75 0c       	add	r7, r5
      bc:	f5 0b       	sbc	r31, r21
      be:	db 0b       	sbc	r29, r27
      c0:	6a 0c       	add	r6, r10
      c2:	81 0c       	add	r8, r1
      c4:	81 0c       	add	r8, r1
      c6:	81 0c       	add	r8, r1
      c8:	c8 0b       	sbc	r28, r24
      ca:	16 0c       	add	r1, r6
      cc:	81 0c       	add	r8, r1
      ce:	81 0c       	add	r8, r1
      d0:	81 0c       	add	r8, r1
      d2:	ac 0b       	sbc	r26, r28
      d4:	81 0c       	add	r8, r1
      d6:	81 0c       	add	r8, r1
      d8:	21 0c       	add	r2, r1
      da:	81 0c       	add	r8, r1
      dc:	81 0c       	add	r8, r1
      de:	41 0c       	add	r4, r1
      e0:	00 0c       	add	r0, r0
      e2:	81 0c       	add	r8, r1
      e4:	0c 0c       	add	r0, r12
      e6:	81 0c       	add	r8, r1
      e8:	81 0c       	add	r8, r1
      ea:	b5 0b       	sbc	r27, r21
      ec:	f3 14       	cp	r15, r3
      ee:	f6 14       	cp	r15, r6
      f0:	ab 16       	cp	r10, r27
      f2:	ab 16       	cp	r10, r27
      f4:	ab 16       	cp	r10, r27
      f6:	ab 16       	cp	r10, r27
      f8:	9e 15       	cp	r25, r14
      fa:	5b 15       	cp	r21, r11
      fc:	f9 15       	cp	r31, r9
      fe:	0c 16       	cp	r0, r28
     100:	21 15       	cp	r18, r1
     102:	44 15       	cp	r20, r4
     104:	79 16       	cp	r7, r25
     106:	7f 16       	cp	r7, r31
     108:	7f 16       	cp	r7, r31
     10a:	9e 16       	cp	r9, r30
     10c:	fd 14       	cp	r15, r13
     10e:	07 15       	cp	r16, r7
     110:	07 15       	cp	r16, r7
     112:	21 15       	cp	r18, r1
     114:	21 15       	cp	r18, r1
     116:	b6 16       	cp	r11, r22
     118:	1d 16       	cp	r1, r29
     11a:	23 16       	cp	r2, r19
     11c:	d5 16       	cp	r13, r21
     11e:	e3 16       	cp	r14, r19
     120:	40 18       	sub	r4, r0
     122:	40 18       	sub	r4, r0
     124:	40 18       	sub	r4, r0
     126:	40 18       	sub	r4, r0
     128:	30 17       	cp	r19, r16
     12a:	30 17       	cp	r19, r16
     12c:	30 17       	cp	r19, r16
     12e:	30 17       	cp	r19, r16
     130:	30 17       	cp	r19, r16
     132:	30 17       	cp	r19, r16
     134:	74 18       	sub	r7, r4
     136:	7a 18       	sub	r7, r10
     138:	7a 18       	sub	r7, r10
     13a:	c5 18       	sub	r12, r5
     13c:	ef 16       	cp	r14, r31
     13e:	fb 16       	cp	r15, r27
     140:	07 17       	cp	r16, r23
     142:	13 17       	cp	r17, r19
     144:	20 17       	cp	r18, r16
     146:	92 17       	cp	r25, r18
     148:	a1 17       	cp	r26, r17
     14a:	c2 17       	cp	r28, r18

0000014c <watch_map>:
     14c:	38 81 3a 81 82 02 83 02 36 01 20 81 1e 81 1c 81     8.:.....6. .....
     15c:	22 01 7d 82 7f 82                                   ".}...

00000162 <__c.1638>:
     162:	20 4c 00                                             L.

00000165 <__c.1636>:
     165:	20 57 00                                             W.

00000168 <__c.1634>:
     168:	20 58 00                                             X.

0000016b <__c.1632>:
     16b:	20 45 3a 00                                          E:.

0000016f <__c.1630>:
     16f:	20 49 65 3a 20 00                                    Ie: .

00000175 <__c.1628>:
     175:	20 49 63 3a 20 00                                    Ic: .

0000017b <__c.1626>:
     17b:	20 49 62 3a 20 00                                    Ib: .

00000181 <__c.1624>:
     181:	20 49 73 3a 20 00                                    Is: .

00000187 <__c.1622>:
     187:	20 42 3a 20 00                                       B: .

0000018c <__c.1620>:
     18c:	42 4f 4f 54 00                                      BOOT.

00000191 <__c.1618>:
     191:	20 53 3a 20 00                                       S: .

00000196 <__c.1616>:
     196:	20 49 3a 20 00                                       I: .

0000019b <__c.1614>:
     19b:	20 56 3a 20 00                                       V: .

000001a0 <__c.1605>:
     1a0:	44 3a 20 00                                         D: .

000001a4 <__c.1560>:
     1a4:	3a 4f 70 65 6e 48 52 32 30 20 31 2e 31 20 44 65     :OpenHR20 1.1 De
     1b4:	63 20 31 30 20 32 30 31 32 20 32 32 3a 34 30 3a     c 10 2012 22:40:
     1c4:	34 39 20 0a 00                                      49 ..

000001c9 <RTC_DayOfMonthTablePrgMem>:
     1c9:	1f 1c 1f 1e 1f 1e 1f 1f 1e 1f 1e 1f                 ............

000001d5 <daysInYear>:
     1d5:	00 00 1f 00 3b 00 5a 00 78 00 97 00 b5 00 d4 00     ....;.Z.x.......
     1e5:	f3 00 11 01 30 01 4e 01                             ....0.N.

000001ed <LCD_CharTablePrgMem>:
     1ed:	3f 06 5b 4f 66 6d 7d 07 7f 6f 77 7c 39 5e 79 71     ?.[Ofm}..ow|9^yq
     1fd:	63 54 73 76 30 08 40 01 48 41 09 49 50 54 10 5c     cTsv0.@.HA.IPT.\
     20d:	00 33 27 38 58 3e 78 6e 46 70                       .3'8X>xnFp

00000217 <LCD_StringTable>:
     217:	20 01 16 07 20 16 01 16 20 16 02 16 20 16 03 16      ... ... ... ...
     227:	20 16 04 16 20 16 05 16 20 16 06 16 20 16 07 16      ... ... ... ...
     237:	0b 01 1f 24 16 16 16 16 20 16 0c 16 20 0e 1c 1c     ...$.... ... ...
     247:	00 0f 0f 20 00 1d 20 20 00 12 0e 1d 0b 0a 26 26     ... ..  ......&&
     257:	20 0e 02 20 20 0e 03 20 20 0e 04 20 0e 0e 12 1c      ..  ..  .. ....
     267:	20 20 28 29 28 29 28 29 20 20 16 16                   ()()()  ..

00000273 <LCD_FieldOffsetTablePrgMem>:
     273:	28 24 1f 1b                                         ($..

00000277 <LCD_SegOffsetTablePrgMem>:
     277:	02 03 1b 19 18 00 01                                .......

0000027e <LCD_SegHourBarOffsetTablePrgMem>:
     27e:	00 02 03 04 05 06 07 08 09 0a 39 35 42 3e 0c 0d     ..........95B>..
     28e:	0e 0f 10 11 12 13 14 15                             ........

00000296 <__ctors_end>:
     296:	11 24       	eor	r1, r1
     298:	1f be       	out	0x3f, r1	; 63
     29a:	cf ef       	ldi	r28, 0xFF	; 255
     29c:	d4 e0       	ldi	r29, 0x04	; 4
     29e:	de bf       	out	0x3e, r29	; 62
     2a0:	cd bf       	out	0x3d, r28	; 61

000002a2 <__do_copy_data>:
     2a2:	11 e0       	ldi	r17, 0x01	; 1
     2a4:	a0 e0       	ldi	r26, 0x00	; 0
     2a6:	b1 e0       	ldi	r27, 0x01	; 1
     2a8:	e0 e8       	ldi	r30, 0x80	; 128
     2aa:	f9 e3       	ldi	r31, 0x39	; 57
     2ac:	02 c0       	rjmp	.+4      	; 0x2b2 <.do_copy_data_start>

000002ae <.do_copy_data_loop>:
     2ae:	05 90       	lpm	r0, Z+
     2b0:	0d 92       	st	X+, r0

000002b2 <.do_copy_data_start>:
     2b2:	ac 31       	cpi	r26, 0x1C	; 28
     2b4:	b1 07       	cpc	r27, r17
     2b6:	d9 f7       	brne	.-10     	; 0x2ae <.do_copy_data_loop>

000002b8 <__do_clear_bss>:
     2b8:	12 e0       	ldi	r17, 0x02	; 2
     2ba:	ac e1       	ldi	r26, 0x1C	; 28
     2bc:	b1 e0       	ldi	r27, 0x01	; 1
     2be:	01 c0       	rjmp	.+2      	; 0x2c2 <.do_clear_bss_start>

000002c0 <.do_clear_bss_loop>:
     2c0:	1d 92       	st	X+, r1

000002c2 <.do_clear_bss_start>:
     2c2:	aa 3c       	cpi	r26, 0xCA	; 202
     2c4:	b1 07       	cpc	r27, r17
     2c6:	e1 f7       	brne	.-8      	; 0x2c0 <.do_clear_bss_loop>
     2c8:	0e 94 3b 10 	call	0x2076	; 0x2076 <main>
     2cc:	0c 94 be 1c 	jmp	0x397c	; 0x397c <_exit>

000002d0 <__bad_interrupt>:
     2d0:	97 ce       	rjmp	.-722    	; 0x0 <__vectors>

000002d2 <MOTOR_GetPosPercent>:
 *   - actual position of motor in percent
 *   - 255 if motor is not calibrated
 ******************************************************************************/
uint8_t MOTOR_GetPosPercent(void)
{
    if (MOTOR_IsCalibrated()){
     2d2:	80 91 00 01 	lds	r24, 0x0100
     2d6:	88 23       	and	r24, r24
     2d8:	11 f0       	breq	.+4      	; 0x2de <MOTOR_GetPosPercent+0xc>
     2da:	6f ef       	ldi	r22, 0xFF	; 255
     2dc:	19 c0       	rjmp	.+50     	; 0x310 <MOTOR_GetPosPercent+0x3e>
        return (uint8_t) ( (MOTOR_PosAct * 10) / (MOTOR_PosMax/10) );
     2de:	20 91 1c 01 	lds	r18, 0x011C
     2e2:	30 91 1d 01 	lds	r19, 0x011D
     2e6:	f9 01       	movw	r30, r18
     2e8:	93 e0       	ldi	r25, 0x03	; 3
     2ea:	ee 0f       	add	r30, r30
     2ec:	ff 1f       	adc	r31, r31
     2ee:	9a 95       	dec	r25
     2f0:	e1 f7       	brne	.-8      	; 0x2ea <MOTOR_GetPosPercent+0x18>
     2f2:	80 91 1e 01 	lds	r24, 0x011E
     2f6:	90 91 1f 01 	lds	r25, 0x011F
     2fa:	6a e0       	ldi	r22, 0x0A	; 10
     2fc:	70 e0       	ldi	r23, 0x00	; 0
     2fe:	0e 94 31 1c 	call	0x3862	; 0x3862 <__divmodhi4>
     302:	22 0f       	add	r18, r18
     304:	33 1f       	adc	r19, r19
     306:	c9 01       	movw	r24, r18
     308:	8e 0f       	add	r24, r30
     30a:	9f 1f       	adc	r25, r31
     30c:	0e 94 31 1c 	call	0x3862	; 0x3862 <__divmodhi4>
    } else {
        return 255;
    }
}
     310:	86 2f       	mov	r24, r22
     312:	08 95       	ret

00000314 <MOTOR_Control>:
     direction  PG3  PG4  PB7  PB4/PWM(OC0A)    PE3    PCINT4
       stop:     0    0    0    0                0      off
       open:     0    1    1   invert. mode      1      on
       close:    1    0    0   non inv mode      1      on       \endverbatim
 ******************************************************************************/
static void MOTOR_Control(motor_dir_t direction) {
     314:	e8 2f       	mov	r30, r24
    if (direction == stop){                             // motor off
     316:	88 23       	and	r24, r24
     318:	29 f4       	brne	.+10     	; 0x324 <MOTOR_Control+0x10>
#if THERMOTRONIC!=1   //not needed (no enable-Pin for motor) 
   PORTB &= ~(1<<PB7);   // PB7 LOW
#endif
}
static inline void MOTOR_H_BRIDGE_stop(void) {
   PORTG  =  0;          // PG3 LOW, PG4 LOW
     31a:	14 ba       	out	0x14, r1	; 20
#if THERMOTRONIC!=1   //not needed (no enable-Pin for motor) 
   PORTB &= ~(1<<PB7);   // PB7 LOW
     31c:	2f 98       	cbi	0x05, 7	; 5
#else
                COM_putchar((PINE & _BV(PE4))?'Y':'y');
#endif
            #endif
        MOTOR_H_BRIDGE_stop();
        MOTOR_Dir = stop;
     31e:	10 92 81 02 	sts	0x0281, r1
     322:	08 95       	ret
    } else {                                            // motor on
        if (MOTOR_Dir != direction){
     324:	80 91 81 02 	lds	r24, 0x0281
     328:	8e 17       	cp	r24, r30
     32a:	09 f4       	brne	.+2      	; 0x32e <MOTOR_Control+0x1a>
     32c:	6c c0       	rjmp	.+216    	; 0x406 <MOTOR_Control+0xf2>
            MOTOR_eye_enable();
     32e:	73 9a       	sbi	0x0e, 3	; 14
            motor_diag_cnt=0; last_eye_change=0; longest_low_eye = 0; 
     330:	10 92 24 01 	sts	0x0124, r1
     334:	10 92 23 01 	sts	0x0123, r1
     338:	10 92 29 01 	sts	0x0129, r1
     33c:	10 92 28 01 	sts	0x0128, r1
     340:	10 92 2b 01 	sts	0x012B, r1
     344:	10 92 2a 01 	sts	0x012A, r1
            motor_diag_ignore = MOTOR_IGNORE_IMPULSES;
     348:	82 e0       	ldi	r24, 0x02	; 2
     34a:	80 93 01 01 	sts	0x0101, r24
            MOTOR_Dir_Counter = (MOTOR_Dir = direction);
     34e:	e0 93 81 02 	sts	0x0281, r30
     352:	e0 93 2e 01 	sts	0x012E, r30
            motor_max_time_for_impulse = ((uint16_t)config.motor_speed *
     356:	90 91 a0 02 	lds	r25, 0x02A0
     35a:	80 91 00 01 	lds	r24, 0x0100
     35e:	88 23       	and	r24, r24
     360:	19 f4       	brne	.+6      	; 0x368 <MOTOR_Control+0x54>
     362:	80 91 9f 02 	lds	r24, 0x029F
     366:	02 c0       	rjmp	.+4      	; 0x36c <MOTOR_Control+0x58>
     368:	80 91 9e 02 	lds	r24, 0x029E
     36c:	28 2f       	mov	r18, r24
     36e:	30 e0       	ldi	r19, 0x00	; 0
     370:	89 2f       	mov	r24, r25
     372:	90 e0       	ldi	r25, 0x00	; 0
     374:	ac 01       	movw	r20, r24
     376:	24 9f       	mul	r18, r20
     378:	c0 01       	movw	r24, r0
     37a:	25 9f       	mul	r18, r21
     37c:	90 0d       	add	r25, r0
     37e:	34 9f       	mul	r19, r20
     380:	90 0d       	add	r25, r0
     382:	11 24       	eor	r1, r1
     384:	64 e6       	ldi	r22, 0x64	; 100
     386:	70 e0       	ldi	r23, 0x00	; 0
     388:	0e 94 1d 1c 	call	0x383a	; 0x383a <__udivmodhi4>
     38c:	33 e0       	ldi	r19, 0x03	; 3
     38e:	66 0f       	add	r22, r22
     390:	77 1f       	adc	r23, r23
     392:	3a 95       	dec	r19
     394:	e1 f7       	brne	.-8      	; 0x38e <MOTOR_Control+0x7a>
     396:	70 93 30 01 	sts	0x0130, r23
     39a:	60 93 2f 01 	sts	0x012F, r22
                      ((MOTOR_IsCalibrated())?   
                            (uint16_t)config.motor_end_detect_run
                            :(uint16_t)config.motor_end_detect_cal) / 100)<<3;
            motor_timer = motor_max_time_for_impulse<<2; // *4 (for motor start-up)
     39e:	80 91 2f 01 	lds	r24, 0x012F
     3a2:	90 91 30 01 	lds	r25, 0x0130
     3a6:	88 0f       	add	r24, r24
     3a8:	99 1f       	adc	r25, r25
     3aa:	88 0f       	add	r24, r24
     3ac:	99 1f       	adc	r25, r25
     3ae:	90 93 26 01 	sts	0x0126, r25
     3b2:	80 93 25 01 	sts	0x0125, r24
            TIFR0 = (1<<TOV0); // clean interrupt flag
     3b6:	81 e0       	ldi	r24, 0x01	; 1
     3b8:	85 bb       	out	0x15, r24	; 21
            TCNT0 = 0;
     3ba:	16 bc       	out	0x26, r1	; 38
            TIMSK0 = (1<<TOIE0); //enable interrupt from timer0 overflow
     3bc:	80 93 6e 00 	sts	0x006E, r24
            pine_last=PINE;
     3c0:	8c b1       	in	r24, 0x0c	; 12
     3c2:	80 93 27 01 	sts	0x0127, r24
#if THERMOTRONIC==1
            PCMSK0 |= (1<<PCINT1); // enable interrupt from eye
#else
            PCMSK0 |= (1<<PCINT4);  // enable interrupt from eye
     3c6:	80 91 6b 00 	lds	r24, 0x006B
     3ca:	80 61       	ori	r24, 0x10	; 16
     3cc:	80 93 6b 00 	sts	0x006B, r24
            {
#if MOTOR_COMPENSATE_BATTERY
                // pwm startup battery voltage compensation
                MOTOR_pwm_set((int16_t)(((uint16_t)config.motor_pwm_max * 256) / ((bat_average)/(2800/256))));
#else
                MOTOR_pwm_set(config.motor_pwm_max);
     3d0:	50 91 9a 02 	lds	r21, 0x029A
 * \note called by TASK_MOTOR_PULSE event
 *
 ******************************************************************************/
static void MOTOR_pwm_set(int16_t pwm) {
    if (pwm>config.motor_pwm_max) OCR0A = config.motor_pwm_max;
    else if (pwm<config.motor_pwm_min) OCR0A = config.motor_pwm_min;
     3d4:	40 91 99 02 	lds	r20, 0x0299
     3d8:	25 2f       	mov	r18, r21
     3da:	30 e0       	ldi	r19, 0x00	; 0
     3dc:	84 2f       	mov	r24, r20
     3de:	90 e0       	ldi	r25, 0x00	; 0
     3e0:	28 17       	cp	r18, r24
     3e2:	39 07       	cpc	r19, r25
     3e4:	14 f4       	brge	.+4      	; 0x3ea <MOTOR_Control+0xd6>
     3e6:	47 bd       	out	0x27, r20	; 39
     3e8:	01 c0       	rjmp	.+2      	; 0x3ec <MOTOR_Control+0xd8>
    else OCR0A = (uint8_t)pwm;
     3ea:	57 bd       	out	0x27, r21	; 39
#else
                MOTOR_pwm_set(config.motor_pwm_max);
#endif

            }
            if ( direction == close) {
     3ec:	ef 3f       	cpi	r30, 0xFF	; 255
     3ee:	31 f4       	brne	.+12     	; 0x3fc <MOTOR_Control+0xe8>
#if THERMOTRONIC!=1   //not needed (no enable-Pin for motor) 
   PORTB |=  (1<<PB7);   // PB7 HIGH
#endif
}
static inline void MOTOR_H_BRIDGE_close(void) {
   PORTG  =  (1<<PG3);   // PG3 HIGH, PG4 LOW
     3f0:	88 e0       	ldi	r24, 0x08	; 8
     3f2:	84 bb       	out	0x14, r24	; 20
#if THERMOTRONIC!=1   //not needed (no enable-Pin for motor) 
   PORTB &= ~(1<<PB7);   // PB7 LOW
     3f4:	2f 98       	cbi	0x05, 7	; 5
                MOTOR_H_BRIDGE_close();
#if THERMOTRONIC==1
				TCCR0A = (1<<CS00); //start timer (no PWM)
#else
                // set PWM non inverting mode
                TCCR0A = (1<<WGM00) | (1<<WGM01) | (1<<COM0A1) | (1<<CS00);
     3f6:	89 e6       	ldi	r24, 0x69	; 105
     3f8:	84 bd       	out	0x24, r24	; 36
     3fa:	08 95       	ret
#define MOTOR_eye_test() (PORTE & _BV(PE3))

// How is the H-Bridge connected to the AVR?

static inline void MOTOR_H_BRIDGE_open(void) {
   PORTG  =  (1<<PG4);   // PG3 LOW, PG4 HIGH
     3fc:	80 e1       	ldi	r24, 0x10	; 16
     3fe:	84 bb       	out	0x14, r24	; 20
#if THERMOTRONIC!=1   //not needed (no enable-Pin for motor) 
   PORTB |=  (1<<PB7);   // PB7 HIGH
     400:	2f 9a       	sbi	0x05, 7	; 5
                // set pins of H-Bridge
				MOTOR_H_BRIDGE_open();
#if THERMOTRONIC==1
				TCCR0A = (1<<CS00); //start timer (no PWM)
#else
                TCCR0A=(1<<WGM00)|(1<<WGM01)|(1<<COM0A1)|(1<<COM0A0)|(1<<CS00);
     402:	89 e7       	ldi	r24, 0x79	; 121
     404:	84 bd       	out	0x24, r24	; 36
     406:	08 95       	ret

00000408 <MOTOR_Goto>:
 *         - 100 : open
 *
 * \note   works only if calibrated before
 ******************************************************************************/
void MOTOR_Goto(uint8_t percent)
{
     408:	28 2f       	mov	r18, r24
    // works only if calibrated
    if (MOTOR_IsCalibrated() && !MOTOR_eye_test()){
     40a:	80 91 00 01 	lds	r24, 0x0100
     40e:	88 23       	and	r24, r24
     410:	09 f0       	breq	.+2      	; 0x414 <MOTOR_Goto+0xc>
     412:	45 c0       	rjmp	.+138    	; 0x49e <MOTOR_Goto+0x96>
     414:	73 99       	sbic	0x0e, 3	; 14
     416:	43 c0       	rjmp	.+134    	; 0x49e <MOTOR_Goto+0x96>
        // set stop position
        if (percent == 100) {
     418:	24 36       	cpi	r18, 0x64	; 100
     41a:	29 f4       	brne	.+10     	; 0x426 <MOTOR_Goto+0x1e>
            MOTOR_PosStop = MOTOR_PosMax;
     41c:	80 91 1e 01 	lds	r24, 0x011E
     420:	90 91 1f 01 	lds	r25, 0x011F
     424:	1d c0       	rjmp	.+58     	; 0x460 <MOTOR_Goto+0x58>
        } else if (percent == 0) {
     426:	22 23       	and	r18, r18
     428:	29 f4       	brne	.+10     	; 0x434 <MOTOR_Goto+0x2c>
            MOTOR_PosStop = 0;
     42a:	10 92 2d 01 	sts	0x012D, r1
     42e:	10 92 2c 01 	sts	0x012C, r1
     432:	1a c0       	rjmp	.+52     	; 0x468 <MOTOR_Goto+0x60>
        } else {
            // MOTOR_PosMax>>2 and 100>>2 => overload protection
            #if (MOTOR_MAX_IMPULSES>>2)*(100>>2) > INT16_MAX
             #error variable OVERLOAD possible
            #endif
            MOTOR_PosStop = ((int16_t)percent * (MOTOR_PosMax>>2)) / (100>>2);
     434:	30 e0       	ldi	r19, 0x00	; 0
     436:	80 91 1e 01 	lds	r24, 0x011E
     43a:	90 91 1f 01 	lds	r25, 0x011F
     43e:	95 95       	asr	r25
     440:	87 95       	ror	r24
     442:	95 95       	asr	r25
     444:	87 95       	ror	r24
     446:	ac 01       	movw	r20, r24
     448:	24 9f       	mul	r18, r20
     44a:	c0 01       	movw	r24, r0
     44c:	25 9f       	mul	r18, r21
     44e:	90 0d       	add	r25, r0
     450:	34 9f       	mul	r19, r20
     452:	90 0d       	add	r25, r0
     454:	11 24       	eor	r1, r1
     456:	69 e1       	ldi	r22, 0x19	; 25
     458:	70 e0       	ldi	r23, 0x00	; 0
     45a:	0e 94 31 1c 	call	0x3862	; 0x3862 <__divmodhi4>
     45e:	cb 01       	movw	r24, r22
     460:	90 93 2d 01 	sts	0x012D, r25
     464:	80 93 2c 01 	sts	0x012C, r24
        }
        // switch motor on
        {
            int16_t a=MOTOR_PosAct; // volatile variable optimization
     468:	40 91 1c 01 	lds	r20, 0x011C
     46c:	50 91 1d 01 	lds	r21, 0x011D
            int16_t s=MOTOR_PosStop; // volatile variable optimization
     470:	20 91 2c 01 	lds	r18, 0x012C
     474:	30 91 2d 01 	lds	r19, 0x012D
            if (a > s+MOTOR_PosOvershoot){
     478:	80 91 22 01 	lds	r24, 0x0122
     47c:	b9 01       	movw	r22, r18
     47e:	68 0f       	add	r22, r24
     480:	71 1d       	adc	r23, r1
     482:	64 17       	cp	r22, r20
     484:	75 07       	cpc	r23, r21
     486:	14 f4       	brge	.+4      	; 0x48c <MOTOR_Goto+0x84>
                MOTOR_Control(close);
     488:	8f ef       	ldi	r24, 0xFF	; 255
     48a:	44 cf       	rjmp	.-376    	; 0x314 <MOTOR_Control>
            } else if (a < s-MOTOR_PosOvershoot){
     48c:	80 91 22 01 	lds	r24, 0x0122
     490:	28 1b       	sub	r18, r24
     492:	31 09       	sbc	r19, r1
     494:	42 17       	cp	r20, r18
     496:	53 07       	cpc	r21, r19
     498:	14 f4       	brge	.+4      	; 0x49e <MOTOR_Goto+0x96>
                MOTOR_Control(open);
     49a:	81 e0       	ldi	r24, 0x01	; 1
     49c:	3b cf       	rjmp	.-394    	; 0x314 <MOTOR_Control>
     49e:	08 95       	ret

000004a0 <MOTOR_timer_pulse>:
 *
 * \note called by TASK_MOTOR_PULSE event
 *
 ******************************************************************************/
void MOTOR_timer_pulse(void) {
    if (motor_diag_ignore == 0) {  
     4a0:	80 91 01 01 	lds	r24, 0x0101
     4a4:	88 23       	and	r24, r24
     4a6:	09 f0       	breq	.+2      	; 0x4aa <MOTOR_timer_pulse+0xa>
     4a8:	44 c0       	rjmp	.+136    	; 0x532 <__stack+0x33>
        {
            int16_t chg = (((int16_t)((motor_diag+4)>>3)- (int16_t)config.motor_speed)
                    *config.motor_speed_ctl_gain)/100;
     4aa:	20 91 20 01 	lds	r18, 0x0120
     4ae:	30 91 21 01 	lds	r19, 0x0121
     4b2:	2c 5f       	subi	r18, 0xFC	; 252
     4b4:	3f 4f       	sbci	r19, 0xFF	; 255
     4b6:	53 e0       	ldi	r21, 0x03	; 3
     4b8:	36 95       	lsr	r19
     4ba:	27 95       	ror	r18
     4bc:	5a 95       	dec	r21
     4be:	e1 f7       	brne	.-8      	; 0x4b8 <MOTOR_timer_pulse+0x18>
     4c0:	80 91 a0 02 	lds	r24, 0x02A0
     4c4:	28 1b       	sub	r18, r24
     4c6:	31 09       	sbc	r19, r1
     4c8:	80 91 a1 02 	lds	r24, 0x02A1
     4cc:	90 e0       	ldi	r25, 0x00	; 0
     4ce:	ac 01       	movw	r20, r24
     4d0:	24 9f       	mul	r18, r20
     4d2:	c0 01       	movw	r24, r0
     4d4:	25 9f       	mul	r18, r21
     4d6:	90 0d       	add	r25, r0
     4d8:	34 9f       	mul	r19, r20
     4da:	90 0d       	add	r25, r0
     4dc:	11 24       	eor	r1, r1
     4de:	64 e6       	ldi	r22, 0x64	; 100
     4e0:	70 e0       	ldi	r23, 0x00	; 0
     4e2:	0e 94 31 1c 	call	0x3862	; 0x3862 <__divmodhi4>
            if (chg > config.motor_pwm_max_step) { chg=config.motor_pwm_max_step; }
     4e6:	80 91 a2 02 	lds	r24, 0x02A2
     4ea:	48 2f       	mov	r20, r24
     4ec:	50 e0       	ldi	r21, 0x00	; 0
     4ee:	46 17       	cp	r20, r22
     4f0:	57 07       	cpc	r21, r23
     4f2:	4c f0       	brlt	.+18     	; 0x506 <__stack+0x7>
            else if (chg < -config.motor_pwm_max_step) chg=-config.motor_pwm_max_step;
     4f4:	88 27       	eor	r24, r24
     4f6:	99 27       	eor	r25, r25
     4f8:	84 1b       	sub	r24, r20
     4fa:	95 0b       	sbc	r25, r21
     4fc:	ab 01       	movw	r20, r22
     4fe:	68 17       	cp	r22, r24
     500:	79 07       	cpc	r23, r25
     502:	0c f4       	brge	.+2      	; 0x506 <__stack+0x7>
     504:	ac 01       	movw	r20, r24
            MOTOR_pwm_set(OCR0A + chg);
     506:	87 b5       	in	r24, 0x27	; 39
     508:	9a 01       	movw	r18, r20
     50a:	28 0f       	add	r18, r24
     50c:	31 1d       	adc	r19, r1
 *
 * \note called by TASK_MOTOR_PULSE event
 *
 ******************************************************************************/
static void MOTOR_pwm_set(int16_t pwm) {
    if (pwm>config.motor_pwm_max) OCR0A = config.motor_pwm_max;
     50e:	40 91 9a 02 	lds	r20, 0x029A
     512:	84 2f       	mov	r24, r20
     514:	90 e0       	ldi	r25, 0x00	; 0
     516:	82 17       	cp	r24, r18
     518:	93 07       	cpc	r25, r19
     51a:	3c f0       	brlt	.+14     	; 0x52a <__stack+0x2b>
    else if (pwm<config.motor_pwm_min) OCR0A = config.motor_pwm_min;
     51c:	40 91 99 02 	lds	r20, 0x0299
     520:	84 2f       	mov	r24, r20
     522:	90 e0       	ldi	r25, 0x00	; 0
     524:	28 17       	cp	r18, r24
     526:	39 07       	cpc	r19, r25
     528:	14 f4       	brge	.+4      	; 0x52e <__stack+0x2f>
     52a:	47 bd       	out	0x27, r20	; 39
     52c:	08 95       	ret
    else OCR0A = (uint8_t)pwm;
     52e:	27 bd       	out	0x27, r18	; 39
     530:	08 95       	ret
            if (chg > config.motor_pwm_max_step) { chg=config.motor_pwm_max_step; }
            else if (chg < -config.motor_pwm_max_step) chg=-config.motor_pwm_max_step;
            MOTOR_pwm_set(OCR0A + chg);
        }
    } else {
       motor_diag_ignore--;
     532:	81 50       	subi	r24, 0x01	; 1
     534:	80 93 01 01 	sts	0x0101, r24
     538:	08 95       	ret

0000053a <__vector_2>:
 *
 * \note count light eye impulss: \ref MOTOR_PosAct
 *
 * \note create TASK_UPDATE_MOTOR_POS
 ******************************************************************************/
ISR (PCINT0_vect){
     53a:	1f 92       	push	r1
     53c:	0f 92       	push	r0
     53e:	0f b6       	in	r0, 0x3f	; 63
     540:	0f 92       	push	r0
     542:	11 24       	eor	r1, r1
     544:	2f 93       	push	r18
     546:	3f 93       	push	r19
     548:	4f 93       	push	r20
     54a:	5f 93       	push	r21
     54c:	8f 93       	push	r24
     54e:	9f 93       	push	r25
     550:	af 93       	push	r26
     552:	bf 93       	push	r27
    uint8_t pine=PINE;
     554:	5c b1       	in	r21, 0x0c	; 12
    #if (defined COM_RS232) || (defined COM_RS485)
        if ((pine & (1<<PE0)) == 0) {
     556:	45 2f       	mov	r20, r21
     558:	50 fd       	sbrc	r21, 0
     55a:	0a c0       	rjmp	.+20     	; 0x570 <__vector_2+0x36>
            RS_enable_rx(); // it is macro, not function
     55c:	80 91 c1 00 	lds	r24, 0x00C1
     560:	80 69       	ori	r24, 0x90	; 144
     562:	80 93 c1 00 	sts	0x00C1, r24
            PCMSK0 &= ~(1<<PCINT0); // deactivate interrupt
     566:	80 91 6b 00 	lds	r24, 0x006B
     56a:	8e 7f       	andi	r24, 0xFE	; 254
     56c:	80 93 6b 00 	sts	0x006B, r24
    // motor eye
    // count  HIGH impulses for HR20 and LOW Pulses for THERMOTRONIC
#if THERMOTRONIC==1
    if ((PCMSK0 & (1<<PCINT1)) && (((pine ^ pine_last) & (1<<PE1)) != 0)) {
#else
    if ((PCMSK0 & (1<<PCINT4)) && (((pine ^ pine_last) & (1<<PE4)) != 0)) {
     570:	80 91 6b 00 	lds	r24, 0x006B
     574:	84 ff       	sbrs	r24, 4
     576:	93 c0       	rjmp	.+294    	; 0x69e <__vector_2+0x164>
     578:	80 91 27 01 	lds	r24, 0x0127
     57c:	85 27       	eor	r24, r21
     57e:	84 ff       	sbrs	r24, 4
     580:	8e c0       	rjmp	.+284    	; 0x69e <__vector_2+0x164>
#endif
        uint16_t dur = motor_diag_cnt - last_eye_change;
     582:	20 91 23 01 	lds	r18, 0x0123
     586:	30 91 24 01 	lds	r19, 0x0124
     58a:	80 91 28 01 	lds	r24, 0x0128
     58e:	90 91 29 01 	lds	r25, 0x0129
     592:	28 1b       	sub	r18, r24
     594:	39 0b       	sbc	r19, r25
        last_eye_change = motor_diag_cnt;
     596:	80 91 23 01 	lds	r24, 0x0123
     59a:	90 91 24 01 	lds	r25, 0x0124
     59e:	90 93 29 01 	sts	0x0129, r25
     5a2:	80 93 28 01 	sts	0x0128, r24
#if THERMOTRONIC==1
        if ((pine & _BV(PE1))!=0) {
#else
        if ((pine & _BV(PE4))==0) {
     5a6:	44 fd       	sbrc	r20, 4
     5a8:	6f c0       	rjmp	.+222    	; 0x688 <__vector_2+0x14e>
#endif
            if (dur > (config.motor_eye_high<<1)) {
     5aa:	80 91 9c 02 	lds	r24, 0x029C
     5ae:	90 e0       	ldi	r25, 0x00	; 0
     5b0:	88 0f       	add	r24, r24
     5b2:	99 1f       	adc	r25, r25
     5b4:	82 17       	cp	r24, r18
     5b6:	93 07       	cpc	r25, r19
     5b8:	08 f0       	brcs	.+2      	; 0x5bc <__vector_2+0x82>
     5ba:	71 c0       	rjmp	.+226    	; 0x69e <__vector_2+0x164>
                if (longest_low_eye > (config.motor_eye_low<<1)) {
     5bc:	20 91 2a 01 	lds	r18, 0x012A
     5c0:	30 91 2b 01 	lds	r19, 0x012B
     5c4:	80 91 9b 02 	lds	r24, 0x029B
     5c8:	90 e0       	ldi	r25, 0x00	; 0
     5ca:	88 0f       	add	r24, r24
     5cc:	99 1f       	adc	r25, r25
     5ce:	82 17       	cp	r24, r18
     5d0:	93 07       	cpc	r25, r19
     5d2:	08 f0       	brcs	.+2      	; 0x5d6 <__vector_2+0x9c>
     5d4:	64 c0       	rjmp	.+200    	; 0x69e <__vector_2+0x164>
                    MOTOR_PosAct+=MOTOR_Dir_Counter;
     5d6:	80 91 1c 01 	lds	r24, 0x011C
     5da:	90 91 1d 01 	lds	r25, 0x011D
     5de:	20 91 2e 01 	lds	r18, 0x012E
     5e2:	33 27       	eor	r19, r19
     5e4:	27 fd       	sbrc	r18, 7
     5e6:	30 95       	com	r19
     5e8:	28 0f       	add	r18, r24
     5ea:	39 1f       	adc	r19, r25
     5ec:	30 93 1d 01 	sts	0x011D, r19
     5f0:	20 93 1c 01 	sts	0x011C, r18
                    if (!MOTOR_run_test()) MOTOR_PosOvershoot++;
     5f4:	84 b3       	in	r24, 0x14	; 20
     5f6:	88 71       	andi	r24, 0x18	; 24
     5f8:	29 f4       	brne	.+10     	; 0x604 <__vector_2+0xca>
     5fa:	80 91 22 01 	lds	r24, 0x0122
     5fe:	8f 5f       	subi	r24, 0xFF	; 255
     600:	80 93 22 01 	sts	0x0122, r24
                    #if DEBUG_MOTOR_COUNTER
                        MOTOR_counter++;
     604:	80 91 7d 02 	lds	r24, 0x027D
     608:	90 91 7e 02 	lds	r25, 0x027E
     60c:	a0 91 7f 02 	lds	r26, 0x027F
     610:	b0 91 80 02 	lds	r27, 0x0280
     614:	01 96       	adiw	r24, 0x01	; 1
     616:	a1 1d       	adc	r26, r1
     618:	b1 1d       	adc	r27, r1
     61a:	80 93 7d 02 	sts	0x027D, r24
     61e:	90 93 7e 02 	sts	0x027E, r25
     622:	a0 93 7f 02 	sts	0x027F, r26
     626:	b0 93 80 02 	sts	0x0280, r27
                    #endif
                    motor_diag = motor_diag_cnt;
     62a:	80 91 23 01 	lds	r24, 0x0123
     62e:	90 91 24 01 	lds	r25, 0x0124
     632:	90 93 21 01 	sts	0x0121, r25
     636:	80 93 20 01 	sts	0x0120, r24
                    longest_low_eye=0;
     63a:	10 92 2b 01 	sts	0x012B, r1
     63e:	10 92 2a 01 	sts	0x012A, r1
                    motor_diag_cnt=0;
     642:	10 92 24 01 	sts	0x0124, r1
     646:	10 92 23 01 	sts	0x0123, r1
                    last_eye_change=0;
     64a:	10 92 29 01 	sts	0x0129, r1
     64e:	10 92 28 01 	sts	0x0128, r1
                    task|=TASK_MOTOR_PULSE;
     652:	f4 9a       	sbi	0x1e, 4	; 30
                    if (MOTOR_PosAct == MOTOR_PosStop) {
     654:	20 91 1c 01 	lds	r18, 0x011C
     658:	30 91 1d 01 	lds	r19, 0x011D
     65c:	80 91 2c 01 	lds	r24, 0x012C
     660:	90 91 2d 01 	lds	r25, 0x012D
     664:	28 17       	cp	r18, r24
     666:	39 07       	cpc	r19, r25
     668:	31 f4       	brne	.+12     	; 0x676 <__vector_2+0x13c>
                        // motor fast STOP
                        MOTOR_PosOvershoot=0;
     66a:	10 92 22 01 	sts	0x0122, r1
#if THERMOTRONIC!=1   //not needed (no enable-Pin for motor) 
   PORTB &= ~(1<<PB7);   // PB7 LOW
#endif
}
static inline void MOTOR_H_BRIDGE_stop(void) {
   PORTG  =  0;          // PG3 LOW, PG4 LOW
     66e:	14 ba       	out	0x14, r1	; 20
#if THERMOTRONIC!=1   //not needed (no enable-Pin for motor) 
   PORTB &= ~(1<<PB7);   // PB7 LOW
     670:	2f 98       	cbi	0x05, 7	; 5
                        MOTOR_H_BRIDGE_stop();
                        task|=(TASK_MOTOR_STOP);
     672:	f5 9a       	sbi	0x1e, 5	; 30
     674:	14 c0       	rjmp	.+40     	; 0x69e <__vector_2+0x164>
                    } else {
                        motor_timer = motor_max_time_for_impulse;
     676:	80 91 2f 01 	lds	r24, 0x012F
     67a:	90 91 30 01 	lds	r25, 0x0130
     67e:	90 93 26 01 	sts	0x0126, r25
     682:	80 93 25 01 	sts	0x0125, r24
     686:	0b c0       	rjmp	.+22     	; 0x69e <__vector_2+0x164>
                        COM_putchar('~');
                    #endif
                }
            }
        } else {
            if (dur > longest_low_eye) longest_low_eye=dur;
     688:	80 91 2a 01 	lds	r24, 0x012A
     68c:	90 91 2b 01 	lds	r25, 0x012B
     690:	82 17       	cp	r24, r18
     692:	93 07       	cpc	r25, r19
     694:	20 f4       	brcc	.+8      	; 0x69e <__vector_2+0x164>
     696:	30 93 2b 01 	sts	0x012B, r19
     69a:	20 93 2a 01 	sts	0x012A, r18
        }
    }
    pine_last=pine;
     69e:	50 93 27 01 	sts	0x0127, r21
          asm volatile("nop"); // we must have one instruction after
        }
    }
  #endif
  // do NOT add anything after RFM part
}
     6a2:	bf 91       	pop	r27
     6a4:	af 91       	pop	r26
     6a6:	9f 91       	pop	r25
     6a8:	8f 91       	pop	r24
     6aa:	5f 91       	pop	r21
     6ac:	4f 91       	pop	r20
     6ae:	3f 91       	pop	r19
     6b0:	2f 91       	pop	r18
     6b2:	0f 90       	pop	r0
     6b4:	0f be       	out	0x3f, r0	; 63
     6b6:	0f 90       	pop	r0
     6b8:	1f 90       	pop	r1
     6ba:	18 95       	reti

000006bc <__vector_11>:
 *******************************************************************************
 * Timer0 overflow interupt
 * runs at 15.625 kHz , see too TCCR0A setting in MOTOR_Control()
 * \note Timer0 is only active if the motor is running
 ******************************************************************************/
ISR (TIMER0_OVF_vect){
     6bc:	1f 92       	push	r1
     6be:	0f 92       	push	r0
     6c0:	0f b6       	in	r0, 0x3f	; 63
     6c2:	0f 92       	push	r0
     6c4:	11 24       	eor	r1, r1
     6c6:	2f 93       	push	r18
     6c8:	8f 93       	push	r24
     6ca:	9f 93       	push	r25
    motor_diag_cnt++;
     6cc:	80 91 23 01 	lds	r24, 0x0123
     6d0:	90 91 24 01 	lds	r25, 0x0124
     6d4:	01 96       	adiw	r24, 0x01	; 1
     6d6:	90 93 24 01 	sts	0x0124, r25
     6da:	80 93 23 01 	sts	0x0123, r24
    if ((uint8_t)(motor_diag_cnt>>8) >= config.motor_close_eye_timeout) {
     6de:	80 91 23 01 	lds	r24, 0x0123
     6e2:	90 91 24 01 	lds	r25, 0x0124
     6e6:	20 91 9d 02 	lds	r18, 0x029D
     6ea:	92 17       	cp	r25, r18
     6ec:	60 f0       	brcs	.+24     	; 0x706 <__vector_11+0x4a>
        // stop pwm signal and Timer0
#if THERMOTRONIC==1
		TCCR0A = 0;//no pwm
        PCMSK0 &= ~(1<<PCINT1); // disable eye interrupt
#else
		TCCR0A = (1<<WGM00) | (1<<WGM01); // 0b 0000 0011
     6ee:	88 e4       	ldi	r24, 0x48	; 72
     6f0:	84 bd       	out	0x24, r24	; 36
        PCMSK0 &= ~(1<<PCINT4); // disable eye interrupt
     6f2:	80 91 6b 00 	lds	r24, 0x006B
     6f6:	8f 7e       	andi	r24, 0xEF	; 239
     6f8:	80 93 6b 00 	sts	0x006B, r24
#endif
        TIMSK0 = 0; // disable timmer 1 interrupt 
     6fc:	10 92 6e 00 	sts	0x006E, r1

        // photo eye
        MOTOR_eye_disable();
     700:	73 98       	cbi	0x0e, 3	; 14
        task&=~(TASK_MOTOR_PULSE); // just ensurance
     702:	f4 98       	cbi	0x1e, 4	; 30
     704:	1c c0       	rjmp	.+56     	; 0x73e <__vector_11+0x82>
        MOTOR_H_BRIDGE_stop(); // ensurance that motor is stop 
    } else {
        if ( motor_timer > 0) {
     706:	80 91 25 01 	lds	r24, 0x0125
     70a:	90 91 26 01 	lds	r25, 0x0126
     70e:	89 2b       	or	r24, r25
     710:	51 f0       	breq	.+20     	; 0x726 <__vector_11+0x6a>
            motor_timer--;
     712:	80 91 25 01 	lds	r24, 0x0125
     716:	90 91 26 01 	lds	r25, 0x0126
     71a:	01 97       	sbiw	r24, 0x01	; 1
     71c:	90 93 26 01 	sts	0x0126, r25
     720:	80 93 25 01 	sts	0x0125, r24
     724:	0e c0       	rjmp	.+28     	; 0x742 <__vector_11+0x86>
        } else {
            if (MOTOR_run_test()) {
     726:	84 b3       	in	r24, 0x14	; 20
     728:	88 71       	andi	r24, 0x18	; 24
     72a:	59 f0       	breq	.+22     	; 0x742 <__vector_11+0x86>
                motor_diag = motor_diag_cnt;
     72c:	80 91 23 01 	lds	r24, 0x0123
     730:	90 91 24 01 	lds	r25, 0x0124
     734:	90 93 21 01 	sts	0x0121, r25
     738:	80 93 20 01 	sts	0x0120, r24
                // motor fast STOP
                task|=(TASK_MOTOR_STOP);
     73c:	f5 9a       	sbi	0x1e, 5	; 30
#if THERMOTRONIC!=1   //not needed (no enable-Pin for motor) 
   PORTB &= ~(1<<PB7);   // PB7 LOW
#endif
}
static inline void MOTOR_H_BRIDGE_stop(void) {
   PORTG  =  0;          // PG3 LOW, PG4 LOW
     73e:	14 ba       	out	0x14, r1	; 20
#if THERMOTRONIC!=1   //not needed (no enable-Pin for motor) 
   PORTB &= ~(1<<PB7);   // PB7 LOW
     740:	2f 98       	cbi	0x05, 7	; 5
                MOTOR_H_BRIDGE_stop();
            }
        }
    }
}
     742:	9f 91       	pop	r25
     744:	8f 91       	pop	r24
     746:	2f 91       	pop	r18
     748:	0f 90       	pop	r0
     74a:	0f be       	out	0x3f, r0	; 63
     74c:	0f 90       	pop	r0
     74e:	1f 90       	pop	r1
     750:	18 95       	reti

00000752 <MOTOR_timer_stop>:
 * motor timer
 *
 * \note called by TASK_MOTOR_STOP event
 *
 ******************************************************************************/
void MOTOR_timer_stop(void) {
     752:	1f 93       	push	r17
     754:	cf 93       	push	r28
     756:	df 93       	push	r29
    motor_dir_t d = MOTOR_Dir;
     758:	10 91 81 02 	lds	r17, 0x0281
    MOTOR_Control(stop);
     75c:	80 e0       	ldi	r24, 0x00	; 0
     75e:	da dd       	rcall	.-1100   	; 0x314 <MOTOR_Control>
    if (motor_timer>0) { // normal stop on wanted position 
     760:	80 91 25 01 	lds	r24, 0x0125
     764:	90 91 26 01 	lds	r25, 0x0126
     768:	89 2b       	or	r24, r25
     76a:	31 f0       	breq	.+12     	; 0x778 <MOTOR_timer_stop+0x26>
            if (MOTOR_calibration_step != 0) {
     76c:	80 91 00 01 	lds	r24, 0x0100
     770:	88 23       	and	r24, r24
     772:	09 f4       	brne	.+2      	; 0x776 <MOTOR_timer_stop+0x24>
     774:	6d c0       	rjmp	.+218    	; 0x850 <MOTOR_timer_stop+0xfe>
     776:	25 c0       	rjmp	.+74     	; 0x7c2 <MOTOR_timer_stop+0x70>
                MOTOR_calibration_step = -1;     // calibration error
                CTL_error |=  CTL_ERR_MOTOR;
            }
    } else { // stop on timeout
        if (d == open) { // stopped on end
     778:	11 30       	cpi	r17, 0x01	; 1
     77a:	09 f0       	breq	.+2      	; 0x77e <MOTOR_timer_stop+0x2c>
     77c:	40 c0       	rjmp	.+128    	; 0x7fe <MOTOR_timer_stop+0xac>
            {
                int16_t a = MOTOR_PosAct; // volatile variable optimization
     77e:	c0 91 1c 01 	lds	r28, 0x011C
     782:	d0 91 1d 01 	lds	r29, 0x011D
                if (MOTOR_calibration_step == 2) {
     786:	80 91 00 01 	lds	r24, 0x0100
     78a:	82 30       	cpi	r24, 0x02	; 2
     78c:	79 f5       	brne	.+94     	; 0x7ec <MOTOR_timer_stop+0x9a>
                    MOTOR_PosMax = a;
     78e:	d0 93 1f 01 	sts	0x011F, r29
     792:	c0 93 1e 01 	sts	0x011E, r28
                    if (MOTOR_ManuCalibration==0) {
     796:	80 91 a3 02 	lds	r24, 0x02A3
     79a:	90 91 a4 02 	lds	r25, 0x02A4
     79e:	89 2b       	or	r24, r25
     7a0:	c9 f4       	brne	.+50     	; 0x7d4 <MOTOR_timer_stop+0x82>
                        if (a >= MOTOR_MIN_IMPULSES) {
     7a2:	c4 36       	cpi	r28, 0x64	; 100
     7a4:	d1 05       	cpc	r29, r1
     7a6:	6c f0       	brlt	.+26     	; 0x7c2 <MOTOR_timer_stop+0x70>
                            MOTOR_ManuCalibration = a;
     7a8:	d0 93 a4 02 	sts	0x02A4, r29
     7ac:	c0 93 a3 02 	sts	0x02A3, r28
                            eeprom_config_save((uint16_t)(&config.MOTOR_ManuCalibration_L)-(uint16_t)(&config));
     7b0:	89 e1       	ldi	r24, 0x19	; 25
     7b2:	0e 94 2b 14 	call	0x2856	; 0x2856 <eeprom_config_save>
                            eeprom_config_save((uint16_t)(&config.MOTOR_ManuCalibration_H)-(uint16_t)(&config));
     7b6:	8a e1       	ldi	r24, 0x1A	; 26
     7b8:	0e 94 2b 14 	call	0x2856	; 0x2856 <eeprom_config_save>
                            MOTOR_calibration_step = 0;
     7bc:	10 92 00 01 	sts	0x0100, r1
     7c0:	47 c0       	rjmp	.+142    	; 0x850 <MOTOR_timer_stop+0xfe>
                        } else {
                            MOTOR_calibration_step = -1;     // calibration error
     7c2:	8f ef       	ldi	r24, 0xFF	; 255
     7c4:	80 93 00 01 	sts	0x0100, r24
                            CTL_error |=  CTL_ERR_MOTOR;
     7c8:	80 91 37 01 	lds	r24, 0x0137
     7cc:	88 60       	ori	r24, 0x08	; 8
     7ce:	80 93 37 01 	sts	0x0137, r24
     7d2:	3e c0       	rjmp	.+124    	; 0x850 <MOTOR_timer_stop+0xfe>
                        }
                    } else {
                        MOTOR_Control(close);
     7d4:	8f ef       	ldi	r24, 0xFF	; 255
     7d6:	9e dd       	rcall	.-1220   	; 0x314 <MOTOR_Control>
                        MOTOR_PosStop= (a-MOTOR_MAX_IMPULSES);
     7d8:	c8 5e       	subi	r28, 0xE8	; 232
     7da:	d3 40       	sbci	r29, 0x03	; 3
     7dc:	d0 93 2d 01 	sts	0x012D, r29
     7e0:	c0 93 2c 01 	sts	0x012C, r28
                        MOTOR_calibration_step = 3;
     7e4:	83 e0       	ldi	r24, 0x03	; 3
     7e6:	80 93 00 01 	sts	0x0100, r24
     7ea:	32 c0       	rjmp	.+100    	; 0x850 <MOTOR_timer_stop+0xfe>
                    }
                } else {
                    MOTOR_PosAct = MOTOR_PosMax; // motor position cleanup
     7ec:	80 91 1e 01 	lds	r24, 0x011E
     7f0:	90 91 1f 01 	lds	r25, 0x011F
     7f4:	90 93 1d 01 	sts	0x011D, r25
     7f8:	80 93 1c 01 	sts	0x011C, r24
     7fc:	29 c0       	rjmp	.+82     	; 0x850 <MOTOR_timer_stop+0xfe>
                }
            }
        } else if (d == close) { // stopped on end
     7fe:	1f 3f       	cpi	r17, 0xFF	; 255
     800:	39 f5       	brne	.+78     	; 0x850 <MOTOR_timer_stop+0xfe>
            {
                if (MOTOR_calibration_step == 3 ) {
     802:	80 91 00 01 	lds	r24, 0x0100
     806:	83 30       	cpi	r24, 0x03	; 3
     808:	89 f4       	brne	.+34     	; 0x82c <MOTOR_timer_stop+0xda>
                    MOTOR_calibration_step = 0;     // calibration DONE
     80a:	10 92 00 01 	sts	0x0100, r1
                    MOTOR_PosMax -= MOTOR_PosAct;
     80e:	20 91 1c 01 	lds	r18, 0x011C
     812:	30 91 1d 01 	lds	r19, 0x011D
     816:	80 91 1e 01 	lds	r24, 0x011E
     81a:	90 91 1f 01 	lds	r25, 0x011F
     81e:	82 1b       	sub	r24, r18
     820:	93 0b       	sbc	r25, r19
     822:	90 93 1f 01 	sts	0x011F, r25
     826:	80 93 1e 01 	sts	0x011E, r24
     82a:	0e c0       	rjmp	.+28     	; 0x848 <MOTOR_timer_stop+0xf6>
                } else if (MOTOR_PosAct>MOTOR_MIN_IMPULSES) {
     82c:	80 91 1c 01 	lds	r24, 0x011C
     830:	90 91 1d 01 	lds	r25, 0x011D
     834:	85 36       	cpi	r24, 0x65	; 101
     836:	91 05       	cpc	r25, r1
     838:	3c f0       	brlt	.+14     	; 0x848 <MOTOR_timer_stop+0xf6>
                    MOTOR_calibration_step = -1;     // calibration error
     83a:	10 93 00 01 	sts	0x0100, r17
                    CTL_error |=  CTL_ERR_MOTOR;
     83e:	80 91 37 01 	lds	r24, 0x0137
     842:	88 60       	ori	r24, 0x08	; 8
     844:	80 93 37 01 	sts	0x0137, r24
                }
                MOTOR_PosAct = 0; // cleanup position
     848:	10 92 1d 01 	sts	0x011D, r1
     84c:	10 92 1c 01 	sts	0x011C, r1
            }
        }
    }
    if ((MOTOR_calibration_step == 0) &&
     850:	80 91 00 01 	lds	r24, 0x0100
     854:	88 23       	and	r24, r24
     856:	79 f4       	brne	.+30     	; 0x876 <MOTOR_timer_stop+0x124>
     858:	80 91 1e 01 	lds	r24, 0x011E
     85c:	90 91 1f 01 	lds	r25, 0x011F
     860:	84 36       	cpi	r24, 0x64	; 100
     862:	91 05       	cpc	r25, r1
     864:	44 f4       	brge	.+16     	; 0x876 <MOTOR_timer_stop+0x124>
        (MOTOR_PosMax<MOTOR_MIN_IMPULSES)) {
        MOTOR_calibration_step = -1;     // calibration error
     866:	8f ef       	ldi	r24, 0xFF	; 255
     868:	80 93 00 01 	sts	0x0100, r24
        CTL_error |=  CTL_ERR_MOTOR;
     86c:	80 91 37 01 	lds	r24, 0x0137
     870:	88 60       	ori	r24, 0x08	; 8
     872:	80 93 37 01 	sts	0x0137, r24
    } 
}
     876:	df 91       	pop	r29
     878:	cf 91       	pop	r28
     87a:	1f 91       	pop	r17
     87c:	08 95       	ret

0000087e <MOTOR_updateCalibration>:
 *  \param cal_type 3 = switch to auto  
 *  \note
 *  - must be called if the motor is unmounted
 ******************************************************************************/
void MOTOR_updateCalibration(uint8_t cal_type)
{
     87e:	1f 93       	push	r17
     880:	18 2f       	mov	r17, r24
    if (cal_type == 0) {
     882:	88 23       	and	r24, r24
     884:	e9 f4       	brne	.+58     	; 0x8c0 <MOTOR_updateCalibration+0x42>
        MOTOR_Control(stop);       // stop motor
     886:	80 e0       	ldi	r24, 0x00	; 0
     888:	45 dd       	rcall	.-1398   	; 0x314 <MOTOR_Control>
        MOTOR_PosAct=0;                  // not calibrated
     88a:	10 92 1d 01 	sts	0x011D, r1
     88e:	10 92 1c 01 	sts	0x011C, r1
        MOTOR_PosMax=0;                  // not calibrated
     892:	10 92 1f 01 	sts	0x011F, r1
     896:	10 92 1e 01 	sts	0x011E, r1
        MOTOR_calibration_step=-2;     // not calibrated
     89a:	8e ef       	ldi	r24, 0xFE	; 254
     89c:	80 93 00 01 	sts	0x0100, r24
        MOTOR_wait_for_new_calibration = 5;
     8a0:	85 e0       	ldi	r24, 0x05	; 5
     8a2:	80 93 02 01 	sts	0x0102, r24
        CTL_error &= ~CTL_ERR_MOTOR;
     8a6:	80 91 37 01 	lds	r24, 0x0137
     8aa:	87 7f       	andi	r24, 0xF7	; 247
     8ac:	80 93 37 01 	sts	0x0137, r24
		#if CALIBRATION_RESETS_sumError
			sumError=0; // new calibration need found new sumError
		#endif
        CTL_integratorBlock=DEFINE_INTEGRATOR_BLOCK;
     8b0:	86 e0       	ldi	r24, 0x06	; 6
     8b2:	80 93 85 02 	sts	0x0285, r24
		CTL_interatorCredit=config.I_max_credit;
     8b6:	80 91 92 02 	lds	r24, 0x0292
     8ba:	80 93 82 02 	sts	0x0282, r24
     8be:	33 c0       	rjmp	.+102    	; 0x926 <MOTOR_updateCalibration+0xa8>
        
    } else {
        if (MOTOR_wait_for_new_calibration != 0) {
     8c0:	80 91 02 01 	lds	r24, 0x0102
     8c4:	88 23       	and	r24, r24
     8c6:	21 f0       	breq	.+8      	; 0x8d0 <MOTOR_updateCalibration+0x52>
            MOTOR_wait_for_new_calibration--;
     8c8:	81 50       	subi	r24, 0x01	; 1
     8ca:	80 93 02 01 	sts	0x0102, r24
     8ce:	0f c0       	rjmp	.+30     	; 0x8ee <MOTOR_updateCalibration+0x70>
        } else {
            if (MOTOR_calibration_step==1) {
     8d0:	80 91 00 01 	lds	r24, 0x0100
     8d4:	81 30       	cpi	r24, 0x01	; 1
     8d6:	59 f4       	brne	.+22     	; 0x8ee <MOTOR_updateCalibration+0x70>
                MOTOR_calibration_step++;
     8d8:	82 e0       	ldi	r24, 0x02	; 2
     8da:	80 93 00 01 	sts	0x0100, r24
                MOTOR_PosStop= +MOTOR_MAX_IMPULSES;
     8de:	88 ee       	ldi	r24, 0xE8	; 232
     8e0:	93 e0       	ldi	r25, 0x03	; 3
     8e2:	90 93 2d 01 	sts	0x012D, r25
     8e6:	80 93 2c 01 	sts	0x012C, r24
                MOTOR_Control(open);
     8ea:	81 e0       	ldi	r24, 0x01	; 1
     8ec:	13 dd       	rcall	.-1498   	; 0x314 <MOTOR_Control>
            }
        }
        if (MOTOR_calibration_step==-2) {
     8ee:	80 91 00 01 	lds	r24, 0x0100
     8f2:	8e 3f       	cpi	r24, 0xFE	; 254
     8f4:	c1 f4       	brne	.+48     	; 0x926 <MOTOR_updateCalibration+0xa8>
            if (cal_type == 3) {
     8f6:	13 30       	cpi	r17, 0x03	; 3
     8f8:	69 f4       	brne	.+26     	; 0x914 <MOTOR_updateCalibration+0x96>
                MOTOR_ManuCalibration=-1;               // automatic calibration
     8fa:	8f ef       	ldi	r24, 0xFF	; 255
     8fc:	9f ef       	ldi	r25, 0xFF	; 255
     8fe:	90 93 a4 02 	sts	0x02A4, r25
     902:	80 93 a3 02 	sts	0x02A3, r24
                eeprom_config_save((uint16_t)(&config.MOTOR_ManuCalibration_L)-(uint16_t)(&config));
     906:	89 e1       	ldi	r24, 0x19	; 25
     908:	0e 94 2b 14 	call	0x2856	; 0x2856 <eeprom_config_save>
                eeprom_config_save((uint16_t)(&config.MOTOR_ManuCalibration_H)-(uint16_t)(&config));
     90c:	8a e1       	ldi	r24, 0x1A	; 26
     90e:	0e 94 2b 14 	call	0x2856	; 0x2856 <eeprom_config_save>
     912:	06 c0       	rjmp	.+12     	; 0x920 <MOTOR_updateCalibration+0xa2>
            }  else if (cal_type == 2) { 
     914:	12 30       	cpi	r17, 0x02	; 2
     916:	21 f4       	brne	.+8      	; 0x920 <MOTOR_updateCalibration+0xa2>
                MOTOR_ManuCalibration=0;               // not calibrated
     918:	10 92 a4 02 	sts	0x02A4, r1
     91c:	10 92 a3 02 	sts	0x02A3, r1
            }
            MOTOR_calibration_step=1;
     920:	81 e0       	ldi	r24, 0x01	; 1
     922:	80 93 00 01 	sts	0x0100, r24
        }
    }
}
     926:	1f 91       	pop	r17
     928:	08 95       	ret

0000092a <CTL_temp_change_inc>:
 *  Change controller temperature (+-)
 *
 *  \param ch relative change
 ******************************************************************************/
void CTL_temp_change_inc (int8_t ch) {
	CTL_temp_wanted_manual+=ch;
     92a:	90 91 04 01 	lds	r25, 0x0104
     92e:	98 0f       	add	r25, r24
     930:	90 93 04 01 	sts	0x0104, r25
	if (CTL_temp_wanted_manual<TEMP_MIN-1) {
     934:	99 30       	cpi	r25, 0x09	; 9
     936:	10 f4       	brcc	.+4      	; 0x93c <CTL_temp_change_inc+0x12>
		CTL_temp_wanted_manual= TEMP_MIN-1;
     938:	89 e0       	ldi	r24, 0x09	; 9
     93a:	03 c0       	rjmp	.+6      	; 0x942 <CTL_temp_change_inc+0x18>
	} else if (CTL_temp_wanted_manual>TEMP_MAX+1) {
     93c:	9e 33       	cpi	r25, 0x3E	; 62
     93e:	18 f0       	brcs	.+6      	; 0x946 <CTL_temp_change_inc+0x1c>
		CTL_temp_wanted_manual= TEMP_MAX+1;
     940:	8d e3       	ldi	r24, 0x3D	; 61
     942:	80 93 04 01 	sts	0x0104, r24
	}
	CTL_temp_wanted = CTL_temp_wanted_manual;
     946:	80 91 04 01 	lds	r24, 0x0104
     94a:	80 93 03 01 	sts	0x0103, r24
	CTL_mode_window = 0;
     94e:	10 92 36 01 	sts	0x0136, r1
	PID_force_update = 9;
     952:	89 e0       	ldi	r24, 0x09	; 9
     954:	80 93 0c 01 	sts	0x010C, r24
}
     958:	08 95       	ret

0000095a <CTL_valve_change_inc>:
 *
 *  \param ch relative change
 *	\note this only has an effect in the valve mode
 ******************************************************************************/
void CTL_valve_change_inc (int8_t ch) {
	CTL_valve_wanted+=ch;
     95a:	90 91 32 01 	lds	r25, 0x0132
     95e:	98 0f       	add	r25, r24
     960:	90 93 32 01 	sts	0x0132, r25
	if (CTL_valve_wanted>config.valve_max) {
     964:	80 91 97 02 	lds	r24, 0x0297
     968:	89 17       	cp	r24, r25
     96a:	20 f0       	brcs	.+8      	; 0x974 <CTL_valve_change_inc+0x1a>
		CTL_valve_wanted=config.valve_max;
	} else if (CTL_valve_wanted<config.valve_min) {
     96c:	80 91 95 02 	lds	r24, 0x0295
     970:	98 17       	cp	r25, r24
     972:	10 f4       	brcc	.+4      	; 0x978 <CTL_valve_change_inc+0x1e>
		CTL_valve_wanted=config.valve_min;
     974:	80 93 32 01 	sts	0x0132, r24
	}
	CTL_mode_window = 0;
     978:	10 92 36 01 	sts	0x0136, r1
	PID_force_update = 0;
     97c:	10 92 0c 01 	sts	0x010C, r1
}
     980:	08 95       	ret

00000982 <CTL_change_mode>:
/*!
 *******************************************************************************
 *  Change controller mode
 *
 ******************************************************************************/
void CTL_change_mode(int8_t m) {
     982:	28 2f       	mov	r18, r24

	if (m == CTL_CHANGE_AUTO) {
     984:	8f 3f       	cpi	r24, 0xFF	; 255
     986:	f9 f4       	brne	.+62     	; 0x9c6 <CTL_change_mode+0x44>
		// Save vars for rewoke
		menu_temp_rewoke=CTL_temp_auto;	
     988:	80 91 31 01 	lds	r24, 0x0131
     98c:	80 93 3f 01 	sts	0x013F, r24
		target_temp_rewoke=CTL_temp_wanted;
     990:	80 91 03 01 	lds	r24, 0x0103
     994:	80 93 40 01 	sts	0x0140, r24
		target_valve_rewoke=CTL_valve_wanted;
     998:	80 91 32 01 	lds	r24, 0x0132
     99c:	80 93 41 01 	sts	0x0141, r24
		mode_auto_rewoke=CTL_mode_auto;
     9a0:	80 91 0b 01 	lds	r24, 0x010B
     9a4:	80 93 42 01 	sts	0x0142, r24

		if (CTL_mode_auto >=2){ 	
     9a8:	82 30       	cpi	r24, 0x02	; 2
     9aa:	18 f0       	brcs	.+6      	; 0x9b2 <CTL_change_mode+0x30>
			//Was in auto, go into manual mode
			CTL_mode_auto = manual_target;
     9ac:	10 92 0b 01 	sts	0x010B, r1
     9b0:	03 c0       	rjmp	.+6      	; 0x9b8 <CTL_change_mode+0x36>
		}
		else{
			//Was in manual mode, go into auto
			CTL_mode_auto = auto_target;
     9b2:	82 e0       	ldi	r24, 0x02	; 2
     9b4:	80 93 0b 01 	sts	0x010B, r24
		}
		PID_force_update = 9;
     9b8:	89 e0       	ldi	r24, 0x09	; 9
     9ba:	80 93 0c 01 	sts	0x010C, r24
		CTL_mode_changed= 1;
     9be:	81 e0       	ldi	r24, 0x01	; 1
     9c0:	80 93 34 01 	sts	0x0134, r24
     9c4:	34 c0       	rjmp	.+104    	; 0xa2e <CTL_change_mode+0xac>
		CTL_mode_changed_timer=0;

	} else if ((m == CTL_CHANGE_MINOR_MODE)) {   
     9c6:	8e 3f       	cpi	r24, 0xFE	; 254
     9c8:	d9 f4       	brne	.+54     	; 0xa00 <CTL_change_mode+0x7e>
		// Save vars for rewoke
		menu_temp_rewoke=CTL_temp_auto;	
     9ca:	80 91 31 01 	lds	r24, 0x0131
     9ce:	80 93 3f 01 	sts	0x013F, r24
		target_temp_rewoke=CTL_temp_wanted;
     9d2:	80 91 03 01 	lds	r24, 0x0103
     9d6:	80 93 40 01 	sts	0x0140, r24
		target_valve_rewoke=CTL_valve_wanted;
     9da:	80 91 32 01 	lds	r24, 0x0132
     9de:	80 93 41 01 	sts	0x0141, r24
		mode_auto_rewoke=CTL_mode_auto;
     9e2:	90 91 0b 01 	lds	r25, 0x010B
     9e6:	90 93 42 01 	sts	0x0142, r25

		if(!(CTL_mode_auto >= 2)){
     9ea:	92 30       	cpi	r25, 0x02	; 2
     9ec:	38 f5       	brcc	.+78     	; 0xa3c <CTL_change_mode+0xba>
			CTL_mode_auto=CTL_mode_auto ^ 1;	
     9ee:	81 e0       	ldi	r24, 0x01	; 1
     9f0:	98 27       	eor	r25, r24
     9f2:	90 93 0b 01 	sts	0x010B, r25
			CTL_mode_changed= 1;
     9f6:	80 93 34 01 	sts	0x0134, r24
			CTL_mode_changed_timer=0;
     9fa:	10 92 35 01 	sts	0x0135, r1
     9fe:	1e c0       	rjmp	.+60     	; 0xa3c <CTL_change_mode+0xba>
		PID_force_update = 9;


		// CTL_CHANGE_MINOR_MODE triggers nothing in auto mode, nothing to do

	}else if( m == CTL_CHANGE_MODE_REWOKE){
     a00:	8d 3f       	cpi	r24, 0xFD	; 253
     a02:	c1 f4       	brne	.+48     	; 0xa34 <CTL_change_mode+0xb2>

		CTL_temp_auto=menu_temp_rewoke;
     a04:	80 91 3f 01 	lds	r24, 0x013F
     a08:	80 93 31 01 	sts	0x0131, r24
		CTL_temp_wanted=target_temp_rewoke;
     a0c:	80 91 40 01 	lds	r24, 0x0140
     a10:	80 93 03 01 	sts	0x0103, r24
		CTL_valve_wanted=target_valve_rewoke;
     a14:	80 91 41 01 	lds	r24, 0x0141
     a18:	80 93 32 01 	sts	0x0132, r24
		CTL_mode_auto=mode_auto_rewoke;
     a1c:	80 91 42 01 	lds	r24, 0x0142
     a20:	80 93 0b 01 	sts	0x010B, r24

		PID_force_update = 9;
     a24:	89 e0       	ldi	r24, 0x09	; 9
     a26:	80 93 0c 01 	sts	0x010C, r24
		CTL_mode_changed= 0;
     a2a:	10 92 34 01 	sts	0x0134, r1
		CTL_mode_changed_timer=0;
     a2e:	10 92 35 01 	sts	0x0135, r1
     a32:	07 c0       	rjmp	.+14     	; 0xa42 <CTL_change_mode+0xc0>

	} else {				//direct set, from uart;
		if (m >= 0) CTL_mode_auto=m;
     a34:	87 fd       	sbrc	r24, 7
     a36:	02 c0       	rjmp	.+4      	; 0xa3c <CTL_change_mode+0xba>
     a38:	80 93 0b 01 	sts	0x010B, r24
		PID_force_update = 9;
     a3c:	89 e0       	ldi	r24, 0x09	; 9
     a3e:	80 93 0c 01 	sts	0x010C, r24
	}
	if ( ((CTL_mode_auto == manual_timers) || (CTL_mode_auto== auto_timers)) && (m != CTL_CHANGE_MODE_REWOKE)) { //If set to timers, set correct target temp
     a42:	80 91 0b 01 	lds	r24, 0x010B
     a46:	81 30       	cpi	r24, 0x01	; 1
     a48:	11 f0       	breq	.+4      	; 0xa4e <CTL_change_mode+0xcc>
     a4a:	84 30       	cpi	r24, 0x04	; 4
     a4c:	49 f4       	brne	.+18     	; 0xa60 <CTL_change_mode+0xde>
     a4e:	2d 3f       	cpi	r18, 0xFD	; 253
     a50:	39 f0       	breq	.+14     	; 0xa60 <CTL_change_mode+0xde>
		CTL_temp_wanted=(CTL_temp_auto=RTC_ActualTimerTemperature(false));
     a52:	80 e0       	ldi	r24, 0x00	; 0
     a54:	0e 94 63 0e 	call	0x1cc6	; 0x1cc6 <RTC_ActualTimerTemperature>
     a58:	80 93 31 01 	sts	0x0131, r24
     a5c:	80 93 03 01 	sts	0x0103, r24
		// CTL_temp_auto=0;  //refresh wanted temperature in next step
	}	
	if(CTL_mode_auto == manual_target){
     a60:	80 91 0b 01 	lds	r24, 0x010B
     a64:	88 23       	and	r24, r24
     a66:	19 f4       	brne	.+6      	; 0xa6e <CTL_change_mode+0xec>
		CTL_temp_wanted = CTL_temp_wanted_manual;
     a68:	80 91 04 01 	lds	r24, 0x0104
     a6c:	04 c0       	rjmp	.+8      	; 0xa76 <CTL_change_mode+0xf4>
	}
	else if( CTL_mode_auto == auto_target){
     a6e:	82 30       	cpi	r24, 0x02	; 2
     a70:	21 f4       	brne	.+8      	; 0xa7a <CTL_change_mode+0xf8>
		CTL_temp_wanted = CTL_temp_wanted_auto;
     a72:	80 91 05 01 	lds	r24, 0x0105
     a76:	80 93 03 01 	sts	0x0103, r24
	}
	CTL_mode_window = 0;
     a7a:	10 92 36 01 	sts	0x0136, r1
}
     a7e:	08 95       	ret

00000a80 <CTL_update>:
 *  \note call it once per second
 *  \param minute_ch is true when minute is changed
 *  \returns valve position
 *
 ******************************************************************************/
void CTL_update(bool minute_ch) {
     a80:	a0 e0       	ldi	r26, 0x00	; 0
     a82:	b0 e0       	ldi	r27, 0x00	; 0
     a84:	e6 e4       	ldi	r30, 0x46	; 70
     a86:	f5 e0       	ldi	r31, 0x05	; 5
     a88:	0c 94 86 1c 	jmp	0x390c	; 0x390c <__prologue_saves__+0xa>
#if (HW_WINDOW_DETECTION)
	PORTE |= _BV(PE2); // enable pull-up
     a8c:	72 9a       	sbi	0x0e, 2	; 14
#endif
	
	if ( (minute_ch || (CTL_temp_auto==0)) && CTL_mode_auto!=auto_valve) {
     a8e:	88 23       	and	r24, r24
     a90:	21 f4       	brne	.+8      	; 0xa9a <CTL_update+0x1a>
     a92:	80 91 31 01 	lds	r24, 0x0131
     a96:	88 23       	and	r24, r24
     a98:	b1 f5       	brne	.+108    	; 0xb06 <CTL_update+0x86>
     a9a:	80 91 0b 01 	lds	r24, 0x010B
     a9e:	83 30       	cpi	r24, 0x03	; 3
     aa0:	91 f1       	breq	.+100    	; 0xb06 <CTL_update+0x86>
		// minutes changed or we need return to timers
		uint8_t t=RTC_ActualTimerTemperature(!(CTL_temp_auto==0));
     aa2:	90 e0       	ldi	r25, 0x00	; 0
     aa4:	80 91 31 01 	lds	r24, 0x0131
     aa8:	81 11       	cpse	r24, r1
     aaa:	91 e0       	ldi	r25, 0x01	; 1
     aac:	89 2f       	mov	r24, r25
     aae:	0e 94 63 0e 	call	0x1cc6	; 0x1cc6 <RTC_ActualTimerTemperature>
     ab2:	18 2f       	mov	r17, r24
		uint8_t border = RTC_ActualTimerTemperature(true);
     ab4:	81 e0       	ldi	r24, 0x01	; 1
     ab6:	0e 94 63 0e 	call	0x1cc6	; 0x1cc6 <RTC_ActualTimerTemperature>
		if (border){
     aba:	88 23       	and	r24, r24
     abc:	71 f0       	breq	.+28     	; 0xada <CTL_update+0x5a>
			if(CTL_mode_auto >= 2){
     abe:	80 91 0b 01 	lds	r24, 0x010B
     ac2:	82 30       	cpi	r24, 0x02	; 2
     ac4:	10 f0       	brcs	.+4      	; 0xaca <CTL_update+0x4a>
				CTL_mode_auto=auto_timers;
     ac6:	84 e0       	ldi	r24, 0x04	; 4
     ac8:	01 c0       	rjmp	.+2      	; 0xacc <CTL_update+0x4c>
			}
			else{
				CTL_mode_auto=manual_timers;
     aca:	81 e0       	ldi	r24, 0x01	; 1
     acc:	80 93 0b 01 	sts	0x010B, r24
			}
			CTL_mode_changed= 1;
     ad0:	81 e0       	ldi	r24, 0x01	; 1
     ad2:	80 93 34 01 	sts	0x0134, r24
			CTL_mode_changed_timer=0;
     ad6:	10 92 35 01 	sts	0x0135, r1
		}
		if (t!=0) {
     ada:	11 23       	and	r17, r17
     adc:	a1 f0       	breq	.+40     	; 0xb06 <CTL_update+0x86>
			CTL_temp_auto=t;
     ade:	10 93 31 01 	sts	0x0131, r17
			if (CTL_mode_auto==manual_timers || CTL_mode_auto==auto_timers) {
     ae2:	80 91 0b 01 	lds	r24, 0x010B
     ae6:	81 30       	cpi	r24, 0x01	; 1
     ae8:	11 f0       	breq	.+4      	; 0xaee <CTL_update+0x6e>
     aea:	84 30       	cpi	r24, 0x04	; 4
     aec:	61 f4       	brne	.+24     	; 0xb06 <CTL_update+0x86>
				CTL_temp_wanted=CTL_temp_auto;
     aee:	10 93 03 01 	sts	0x0103, r17
				if ((PID_force_update<0)&&(CTL_temp_wanted!=CTL_temp_wanted_last)) {
     af2:	80 91 0c 01 	lds	r24, 0x010C
     af6:	87 ff       	sbrs	r24, 7
     af8:	06 c0       	rjmp	.+12     	; 0xb06 <CTL_update+0x86>
     afa:	80 91 06 01 	lds	r24, 0x0106
     afe:	18 17       	cp	r17, r24
     b00:	11 f0       	breq	.+4      	; 0xb06 <CTL_update+0x86>
					PID_force_update=0;
     b02:	10 92 0c 01 	sts	0x010C, r1
		if (PID_boost_timeout==0) {
			PID_force_update = 0;
		}
	}
#endif
	if (!(CTL_mode_auto >=2 )){
     b06:	40 91 0b 01 	lds	r20, 0x010B
     b0a:	42 30       	cpi	r20, 0x02	; 2
     b0c:	50 f5       	brcc	.+84     	; 0xb62 <CTL_update+0xe2>
#if (HW_WINDOW_DETECTION)
static void CTL_window_detection(void) {
	bool w;
	// PORTE |= _BV(PE2); // enable pull-up
	// nop();nop();
	w = ((PINE & _BV(PE2))!=0) && config.window_open_detection_enable;
     b0e:	62 99       	sbic	0x0c, 2	; 12
     b10:	03 c0       	rjmp	.+6      	; 0xb18 <CTL_update+0x98>
     b12:	80 e0       	ldi	r24, 0x00	; 0
     b14:	90 e0       	ldi	r25, 0x00	; 0
     b16:	09 c0       	rjmp	.+18     	; 0xb2a <CTL_update+0xaa>
     b18:	90 e0       	ldi	r25, 0x00	; 0
     b1a:	80 91 b0 02 	lds	r24, 0x02B0
     b1e:	88 23       	and	r24, r24
     b20:	09 f4       	brne	.+2      	; 0xb24 <CTL_update+0xa4>
     b22:	91 e0       	ldi	r25, 0x01	; 1
     b24:	81 e0       	ldi	r24, 0x01	; 1
     b26:	98 27       	eor	r25, r24
     b28:	89 2f       	mov	r24, r25
     b2a:	28 2f       	mov	r18, r24
	if (!w) PORTE &= ~_BV(PE2); // disable pullup for save energy
     b2c:	88 23       	and	r24, r24
     b2e:	09 f4       	brne	.+2      	; 0xb32 <CTL_update+0xb2>
     b30:	72 98       	cbi	0x0e, 2	; 14

	if (CTL_mode_window != w) {
     b32:	80 91 36 01 	lds	r24, 0x0136
     b36:	82 17       	cp	r24, r18
     b38:	59 f0       	breq	.+22     	; 0xb50 <CTL_update+0xd0>
		if (window_timer==0) {
     b3a:	80 91 0f 01 	lds	r24, 0x010F
     b3e:	88 23       	and	r24, r24
     b40:	29 f4       	brne	.+10     	; 0xb4c <CTL_update+0xcc>
			CTL_mode_window = w;
     b42:	20 93 36 01 	sts	0x0136, r18
			PID_force_update = 0;
     b46:	10 92 0c 01 	sts	0x010C, r1
     b4a:	02 c0       	rjmp	.+4      	; 0xb50 <CTL_update+0xd0>
			// kb_events |= KB_EVENT_UPDATE_LCD;
		} else {
			window_timer--;
     b4c:	81 50       	subi	r24, 0x01	; 1
     b4e:	07 c0       	rjmp	.+14     	; 0xb5e <CTL_update+0xde>
			return;
		}
	}
	window_timer=(w)?(config.window_close_detection_delay):(config.window_open_detection_delay);
     b50:	22 23       	and	r18, r18
     b52:	19 f0       	breq	.+6      	; 0xb5a <CTL_update+0xda>
     b54:	80 91 b2 02 	lds	r24, 0x02B2
     b58:	02 c0       	rjmp	.+4      	; 0xb5e <CTL_update+0xde>
     b5a:	80 91 b1 02 	lds	r24, 0x02B1
     b5e:	80 93 0f 01 	sts	0x010F, r24
	}
#endif
	if (!(CTL_mode_auto >=2 )){
		CTL_window_detection();
	}
	if (PID_update_timeout>0) {
     b62:	80 91 0d 01 	lds	r24, 0x010D
     b66:	90 91 0e 01 	lds	r25, 0x010E
     b6a:	00 97       	sbiw	r24, 0x00	; 0
     b6c:	29 f0       	breq	.+10     	; 0xb78 <CTL_update+0xf8>
		PID_update_timeout--;
     b6e:	01 97       	sbiw	r24, 0x01	; 1
     b70:	90 93 0e 01 	sts	0x010E, r25
     b74:	80 93 0d 01 	sts	0x010D, r24
	}
	if (PID_force_update>0) { 
     b78:	80 91 0c 01 	lds	r24, 0x010C
     b7c:	18 16       	cp	r1, r24
     b7e:	14 f4       	brge	.+4      	; 0xb84 <CTL_update+0x104>
		PID_force_update--;
     b80:	81 50       	subi	r24, 0x01	; 1
     b82:	1d c2       	rjmp	.+1082   	; 0xfbe <CTL_update+0x53e>
	}
	else if ((PID_update_timeout == 0)||(PID_force_update==0)) {
     b84:	20 91 0d 01 	lds	r18, 0x010D
     b88:	30 91 0e 01 	lds	r19, 0x010E
     b8c:	21 15       	cp	r18, r1
     b8e:	31 05       	cpc	r19, r1
     b90:	19 f0       	breq	.+6      	; 0xb98 <CTL_update+0x118>
     b92:	88 23       	and	r24, r24
     b94:	09 f0       	breq	.+2      	; 0xb98 <CTL_update+0x118>
     b96:	15 c2       	rjmp	.+1066   	; 0xfc2 <CTL_update+0x542>
		uint8_t temp;
		if (CTL_mode_auto == auto_target){
     b98:	42 30       	cpi	r20, 0x02	; 2
     b9a:	19 f4       	brne	.+6      	; 0xba2 <CTL_update+0x122>
			CTL_temp_wanted = CTL_temp_wanted_auto;
     b9c:	80 91 05 01 	lds	r24, 0x0105
     ba0:	04 c0       	rjmp	.+8      	; 0xbaa <CTL_update+0x12a>
		}
		else if (CTL_mode_auto == manual_target){
     ba2:	44 23       	and	r20, r20
     ba4:	21 f4       	brne	.+8      	; 0xbae <CTL_update+0x12e>
			CTL_temp_wanted = CTL_temp_wanted_manual;
     ba6:	80 91 04 01 	lds	r24, 0x0104
     baa:	80 93 03 01 	sts	0x0103, r24
		}
		if (((CTL_temp_wanted<TEMP_MIN) || mode_window()) ) {
     bae:	80 90 03 01 	lds	r8, 0x0103
     bb2:	59 e0       	ldi	r21, 0x09	; 9
     bb4:	58 15       	cp	r21, r8
     bb6:	20 f4       	brcc	.+8      	; 0xbc0 <CTL_update+0x140>
     bb8:	80 91 36 01 	lds	r24, 0x0136
     bbc:	88 23       	and	r24, r24
     bbe:	11 f0       	breq	.+4      	; 0xbc4 <CTL_update+0x144>
     bc0:	7a e0       	ldi	r23, 0x0A	; 10
     bc2:	87 2e       	mov	r8, r23
			temp = TEMP_MIN;	// frost protection to TEMP_MIN 
		} else {
			temp = CTL_temp_wanted;
		}
		bool updateNow=(temp!=CTL_temp_wanted_last);
     bc4:	50 e0       	ldi	r21, 0x00	; 0
     bc6:	80 91 06 01 	lds	r24, 0x0106
     bca:	88 16       	cp	r8, r24
     bcc:	21 f0       	breq	.+8      	; 0xbd6 <CTL_update+0x156>
     bce:	51 e0       	ldi	r21, 0x01	; 1
		if (updateNow) {
			CTL_temp_wanted_last=temp;
     bd0:	80 92 06 01 	sts	0x0106, r8
     bd4:	05 c0       	rjmp	.+10     	; 0xbe0 <CTL_update+0x160>
			goto UPDATE_NOW; // optimize
		}
		if (CTL_mode_auto==auto_valve){
     bd6:	43 30       	cpi	r20, 0x03	; 3
     bd8:	19 f0       	breq	.+6      	; 0xbe0 <CTL_update+0x160>
			goto UPDATE_NOW;
		}
		if ((PID_update_timeout == 0)) {
     bda:	23 2b       	or	r18, r19
     bdc:	09 f0       	breq	.+2      	; 0xbe0 <CTL_update+0x160>
     bde:	ee c1       	rjmp	.+988    	; 0xfbc <CTL_update+0x53c>
UPDATE_NOW:
			PID_update_timeout = (config.PID_interval * 5); // new PID pooling
     be0:	80 91 94 02 	lds	r24, 0x0294
     be4:	25 e0       	ldi	r18, 0x05	; 5
     be6:	82 9f       	mul	r24, r18
     be8:	c0 01       	movw	r24, r0
     bea:	11 24       	eor	r1, r1
     bec:	90 93 0e 01 	sts	0x010E, r25
     bf0:	80 93 0d 01 	sts	0x010D, r24
			uint8_t new_valve;
			if (CTL_mode_auto==auto_valve){
     bf4:	43 30       	cpi	r20, 0x03	; 3
     bf6:	19 f4       	brne	.+6      	; 0xbfe <CTL_update+0x17e>
				new_valve=CTL_valve_wanted;
     bf8:	10 91 32 01 	lds	r17, 0x0132
     bfc:	d3 c1       	rjmp	.+934    	; 0xfa4 <CTL_update+0x524>
			}
			else{
				if (temp>TEMP_MAX) {
     bfe:	8c e3       	ldi	r24, 0x3C	; 60
     c00:	88 15       	cp	r24, r8
     c02:	18 f4       	brcc	.+6      	; 0xc0a <CTL_update+0x18a>
					new_valve = config.valve_max;
     c04:	10 91 97 02 	lds	r17, 0x0297
     c08:	cb c1       	rjmp	.+918    	; 0xfa0 <CTL_update+0x520>
				} 
				else {
					new_valve = pid_Controller(calc_temp(temp),temp_average,valveHistory[0],updateNow);
     c0a:	00 91 26 02 	lds	r16, 0x0226
     c0e:	10 91 27 02 	lds	r17, 0x0227
     c12:	70 90 84 02 	lds	r7, 0x0284

static uint8_t pid_Controller(int16_t setPoint, int16_t processValue, uint8_t old_result, bool updateNow)
{
	int32_t /*error2,*/ pi_term;
	int16_t error16;
	error16 = setPoint - processValue;
     c16:	82 e3       	ldi	r24, 0x32	; 50
     c18:	88 9e       	mul	r8, r24
     c1a:	90 01       	movw	r18, r0
     c1c:	11 24       	eor	r1, r1
     c1e:	20 1b       	sub	r18, r16
     c20:	31 0b       	sbc	r19, r17
     c22:	4b ef       	ldi	r20, 0xFB	; 251
     c24:	20 35       	cpi	r18, 0x50	; 80
     c26:	34 07       	cpc	r19, r20
     c28:	14 f4       	brge	.+4      	; 0xc2e <CTL_update+0x1ae>
     c2a:	20 e5       	ldi	r18, 0x50	; 80
     c2c:	3b ef       	ldi	r19, 0xFB	; 251
     c2e:	e9 01       	movw	r28, r18
     c30:	84 e0       	ldi	r24, 0x04	; 4
     c32:	21 3b       	cpi	r18, 0xB1	; 177
     c34:	38 07       	cpc	r19, r24
     c36:	14 f0       	brlt	.+4      	; 0xc3c <CTL_update+0x1bc>
     c38:	c0 eb       	ldi	r28, 0xB0	; 176
     c3a:	d4 e0       	ldi	r29, 0x04	; 4
	} else if (error16 < -1200) {
		error16=-1200;
	}

	{
		int16_t absErr = abs(error16);
     c3c:	fe 01       	movw	r30, r28
     c3e:	d7 ff       	sbrs	r29, 7
     c40:	04 c0       	rjmp	.+8      	; 0xc4a <CTL_update+0x1ca>
     c42:	ee 27       	eor	r30, r30
     c44:	ff 27       	eor	r31, r31
     c46:	ec 1b       	sub	r30, r28
     c48:	fd 0b       	sbc	r31, r29
		if (updateNow) {
     c4a:	55 23       	and	r21, r21
     c4c:	09 f4       	brne	.+2      	; 0xc50 <CTL_update+0x1d0>
     c4e:	47 c0       	rjmp	.+142    	; 0xcde <CTL_update+0x25e>
			CTL_interatorCredit=config.I_max_credit;
     c50:	80 91 92 02 	lds	r24, 0x0292
     c54:	80 93 82 02 	sts	0x0282, r24
			CTL_creditExpiration=config.I_credit_expiration;
     c58:	80 91 93 02 	lds	r24, 0x0293
     c5c:	80 93 83 02 	sts	0x0283, r24
			CTL_integratorBlock=DEFINE_INTEGRATOR_BLOCK; // do not allow update integrator immediately after temp change
     c60:	86 e0       	ldi	r24, 0x06	; 6
     c62:	80 93 85 02 	sts	0x0285, r24
			testIntegratorRevert(lastAbsError);
     c66:	40 91 43 01 	lds	r20, 0x0143
     c6a:	50 91 44 01 	lds	r21, 0x0144

static uint16_t lastTempChangeErrorAbs;
static int32_t lastTempChangeSumError;

static void testIntegratorRevert(uint16_t absErr) {
	if ((absErr>=((lastTempChangeErrorAbs*3)>>2)) 
     c6e:	20 91 47 01 	lds	r18, 0x0147
     c72:	30 91 48 01 	lds	r19, 0x0148
     c76:	c9 01       	movw	r24, r18
     c78:	88 0f       	add	r24, r24
     c7a:	99 1f       	adc	r25, r25
     c7c:	82 0f       	add	r24, r18
     c7e:	93 1f       	adc	r25, r19
     c80:	96 95       	lsr	r25
     c82:	87 95       	ror	r24
     c84:	96 95       	lsr	r25
     c86:	87 95       	ror	r24
     c88:	48 17       	cp	r20, r24
     c8a:	59 07       	cpc	r21, r25
     c8c:	98 f0       	brcs	.+38     	; 0xcb4 <CTL_update+0x234>
     c8e:	4f 31       	cpi	r20, 0x1F	; 31
     c90:	51 05       	cpc	r21, r1
     c92:	80 f0       	brcs	.+32     	; 0xcb4 <CTL_update+0x234>
			&& (absErr > (I_ERR_TOLLERANCE_AROUND_0*2))) {
		// if error could not be reduced to 3/4 and Error is larger than I_ERR_TOLLERANCE_AROUND_0C
		sumError=lastTempChangeSumError;
     c94:	80 91 49 01 	lds	r24, 0x0149
     c98:	90 91 4a 01 	lds	r25, 0x014A
     c9c:	a0 91 4b 01 	lds	r26, 0x014B
     ca0:	b0 91 4c 01 	lds	r27, 0x014C
     ca4:	80 93 38 01 	sts	0x0138, r24
     ca8:	90 93 39 01 	sts	0x0139, r25
     cac:	a0 93 3a 01 	sts	0x013A, r26
     cb0:	b0 93 3b 01 	sts	0x013B, r27
		if (updateNow) {
			CTL_interatorCredit=config.I_max_credit;
			CTL_creditExpiration=config.I_credit_expiration;
			CTL_integratorBlock=DEFINE_INTEGRATOR_BLOCK; // do not allow update integrator immediately after temp change
			testIntegratorRevert(lastAbsError);
			lastTempChangeErrorAbs = absErr;
     cb4:	f0 93 48 01 	sts	0x0148, r31
     cb8:	e0 93 47 01 	sts	0x0147, r30
			lastTempChangeSumError = sumError;
     cbc:	80 91 38 01 	lds	r24, 0x0138
     cc0:	90 91 39 01 	lds	r25, 0x0139
     cc4:	a0 91 3a 01 	lds	r26, 0x013A
     cc8:	b0 91 3b 01 	lds	r27, 0x013B
     ccc:	80 93 49 01 	sts	0x0149, r24
     cd0:	90 93 4a 01 	sts	0x014A, r25
     cd4:	a0 93 4b 01 	sts	0x014B, r26
     cd8:	b0 93 4c 01 	sts	0x014C, r27
     cdc:	ae c0       	rjmp	.+348    	; 0xe3a <CTL_update+0x3ba>
						PID_boost_timeout = (error16 >= 0) ? config.temp_boost_time_heat : config.temp_boost_time_cool ;
						PID_boost_timeout = (uint8_t)(MIN(255,abs(error16)/10*(int16_t)PID_boost_timeout/(int16_t)config.temp_boost_tempchange)); //boosttime=error/10(0,1C)*time/tempchange
					}
#endif
		} else {
			if (CTL_integratorBlock == 0) {
     cde:	80 91 85 02 	lds	r24, 0x0285
     ce2:	88 23       	and	r24, r24
     ce4:	09 f0       	breq	.+2      	; 0xce8 <CTL_update+0x268>
     ce6:	93 c0       	rjmp	.+294    	; 0xe0e <CTL_update+0x38e>
				if (CTL_creditExpiration>0) {
     ce8:	80 91 83 02 	lds	r24, 0x0283
     cec:	88 23       	and	r24, r24
     cee:	21 f0       	breq	.+8      	; 0xcf8 <CTL_update+0x278>
					CTL_creditExpiration--;
     cf0:	81 50       	subi	r24, 0x01	; 1
     cf2:	80 93 83 02 	sts	0x0283, r24
     cf6:	02 c0       	rjmp	.+4      	; 0xcfc <CTL_update+0x27c>
				} else {
					CTL_interatorCredit=0;
     cf8:	10 92 82 02 	sts	0x0282, r1
				}
				if ((error16 >= 0) ? (old_result < config.valve_max) : (old_result > config.valve_min)) {
     cfc:	d7 fd       	sbrc	r29, 7
     cfe:	06 c0       	rjmp	.+12     	; 0xd0c <CTL_update+0x28c>
     d00:	80 91 97 02 	lds	r24, 0x0297
     d04:	78 16       	cp	r7, r24
     d06:	08 f0       	brcs	.+2      	; 0xd0a <CTL_update+0x28a>
     d08:	54 c0       	rjmp	.+168    	; 0xdb2 <CTL_update+0x332>
     d0a:	05 c0       	rjmp	.+10     	; 0xd16 <CTL_update+0x296>
     d0c:	80 91 95 02 	lds	r24, 0x0295
     d10:	87 15       	cp	r24, r7
     d12:	08 f0       	brcs	.+2      	; 0xd16 <CTL_update+0x296>
     d14:	4e c0       	rjmp	.+156    	; 0xdb2 <CTL_update+0x332>
					if (((lastErrorSign != ((uint8_t)(error16>>8)&0x80))) || 
     d16:	20 91 3c 01 	lds	r18, 0x013C
     d1a:	30 e0       	ldi	r19, 0x00	; 0
     d1c:	8d 2f       	mov	r24, r29
     d1e:	99 27       	eor	r25, r25
     d20:	87 fd       	sbrc	r24, 7
     d22:	9a 95       	dec	r25
     d24:	90 e0       	ldi	r25, 0x00	; 0
     d26:	80 78       	andi	r24, 0x80	; 128
     d28:	90 70       	andi	r25, 0x00	; 0
     d2a:	28 17       	cp	r18, r24
     d2c:	39 07       	cpc	r19, r25
     d2e:	51 f4       	brne	.+20     	; 0xd44 <CTL_update+0x2c4>
     d30:	80 91 45 01 	lds	r24, 0x0145
     d34:	90 91 46 01 	lds	r25, 0x0146
     d38:	e8 17       	cp	r30, r24
     d3a:	f9 07       	cpc	r31, r25
     d3c:	61 f4       	brne	.+24     	; 0xd56 <CTL_update+0x2d6>
     d3e:	e0 31       	cpi	r30, 0x10	; 16
     d40:	f1 05       	cpc	r31, r1
     d42:	4c f4       	brge	.+18     	; 0xd56 <CTL_update+0x2d6>
							((absErr==last2AbsError) && (absErr<=I_ERR_TOLLERANCE_AROUND_0))) { //sign of last error16 != sign of current OR abserror around 0

						CTL_interatorCredit=config.I_max_credit; // ? optional
     d44:	80 91 92 02 	lds	r24, 0x0292
     d48:	80 93 82 02 	sts	0x0282, r24
						CTL_creditExpiration=config.I_credit_expiration;
     d4c:	80 91 93 02 	lds	r24, 0x0293
     d50:	80 93 83 02 	sts	0x0283, r24
     d54:	10 c0       	rjmp	.+32     	; 0xd76 <CTL_update+0x2f6>
						goto INTEGRATOR; // next integration, do not change CTL_interatorCredit
					}
					if (CTL_interatorCredit>0) {
     d56:	20 91 82 02 	lds	r18, 0x0282
     d5a:	12 16       	cp	r1, r18
     d5c:	54 f5       	brge	.+84     	; 0xdb2 <CTL_update+0x332>
						if (absErr >= last2AbsError) { // error can grow only limited time 
     d5e:	e8 17       	cp	r30, r24
     d60:	f9 07       	cpc	r31, r25
     d62:	38 f1       	brcs	.+78     	; 0xdb2 <CTL_update+0x332>
							CTL_interatorCredit-=(absErr/I_ERR_WEIGHT)+1; // max is 1200/20+1 = 61
     d64:	cf 01       	movw	r24, r30
     d66:	69 e1       	ldi	r22, 0x19	; 25
     d68:	70 e0       	ldi	r23, 0x00	; 0
     d6a:	0e 94 31 1c 	call	0x3862	; 0x3862 <__divmodhi4>
     d6e:	60 95       	com	r22
     d70:	26 0f       	add	r18, r22
     d72:	20 93 82 02 	sts	0x0282, r18
INTEGRATOR:
							sumError += error16*8;
     d76:	9e 01       	movw	r18, r28
     d78:	b3 e0       	ldi	r27, 0x03	; 3
     d7a:	22 0f       	add	r18, r18
     d7c:	33 1f       	adc	r19, r19
     d7e:	ba 95       	dec	r27
     d80:	e1 f7       	brne	.-8      	; 0xd7a <CTL_update+0x2fa>
     d82:	44 27       	eor	r20, r20
     d84:	37 fd       	sbrc	r19, 7
     d86:	40 95       	com	r20
     d88:	54 2f       	mov	r21, r20
     d8a:	80 91 38 01 	lds	r24, 0x0138
     d8e:	90 91 39 01 	lds	r25, 0x0139
     d92:	a0 91 3a 01 	lds	r26, 0x013A
     d96:	b0 91 3b 01 	lds	r27, 0x013B
     d9a:	82 0f       	add	r24, r18
     d9c:	93 1f       	adc	r25, r19
     d9e:	a4 1f       	adc	r26, r20
     da0:	b5 1f       	adc	r27, r21
     da2:	80 93 38 01 	sts	0x0138, r24
     da6:	90 93 39 01 	sts	0x0139, r25
     daa:	a0 93 3a 01 	sts	0x013A, r26
     dae:	b0 93 3b 01 	sts	0x013B, r27
						}
					}
				} 
				if (CTL_interatorCredit<=0) {
     db2:	80 91 82 02 	lds	r24, 0x0282
     db6:	18 16       	cp	r1, r24
     db8:	6c f1       	brlt	.+90     	; 0xe14 <CTL_update+0x394>

static uint16_t lastTempChangeErrorAbs;
static int32_t lastTempChangeSumError;

static void testIntegratorRevert(uint16_t absErr) {
	if ((absErr>=((lastTempChangeErrorAbs*3)>>2)) 
     dba:	20 91 47 01 	lds	r18, 0x0147
     dbe:	30 91 48 01 	lds	r19, 0x0148
     dc2:	c9 01       	movw	r24, r18
     dc4:	88 0f       	add	r24, r24
     dc6:	99 1f       	adc	r25, r25
     dc8:	82 0f       	add	r24, r18
     dca:	93 1f       	adc	r25, r19
     dcc:	96 95       	lsr	r25
     dce:	87 95       	ror	r24
     dd0:	96 95       	lsr	r25
     dd2:	87 95       	ror	r24
     dd4:	e8 17       	cp	r30, r24
     dd6:	f9 07       	cpc	r31, r25
     dd8:	98 f0       	brcs	.+38     	; 0xe00 <CTL_update+0x380>
     dda:	ef 31       	cpi	r30, 0x1F	; 31
     ddc:	f1 05       	cpc	r31, r1
     dde:	80 f0       	brcs	.+32     	; 0xe00 <CTL_update+0x380>
			&& (absErr > (I_ERR_TOLLERANCE_AROUND_0*2))) {
		// if error could not be reduced to 3/4 and Error is larger than I_ERR_TOLLERANCE_AROUND_0C
		sumError=lastTempChangeSumError;
     de0:	80 91 49 01 	lds	r24, 0x0149
     de4:	90 91 4a 01 	lds	r25, 0x014A
     de8:	a0 91 4b 01 	lds	r26, 0x014B
     dec:	b0 91 4c 01 	lds	r27, 0x014C
     df0:	80 93 38 01 	sts	0x0138, r24
     df4:	90 93 39 01 	sts	0x0139, r25
     df8:	a0 93 3a 01 	sts	0x013A, r26
     dfc:	b0 93 3b 01 	sts	0x013B, r27
	}
	lastTempChangeErrorAbs = 0xffff; // function can be called more time but only first is valid
     e00:	8f ef       	ldi	r24, 0xFF	; 255
     e02:	9f ef       	ldi	r25, 0xFF	; 255
     e04:	90 93 48 01 	sts	0x0148, r25
     e08:	80 93 47 01 	sts	0x0147, r24
     e0c:	03 c0       	rjmp	.+6      	; 0xe14 <CTL_update+0x394>
				if (CTL_interatorCredit<=0) {
					// credit is empty, test result
					testIntegratorRevert(absErr);
				} 
			} else {
				CTL_integratorBlock--;
     e0e:	81 50       	subi	r24, 0x01	; 1
     e10:	80 93 85 02 	sts	0x0285, r24
			}
			last2AbsError = lastAbsError;
     e14:	80 91 43 01 	lds	r24, 0x0143
     e18:	90 91 44 01 	lds	r25, 0x0144
     e1c:	90 93 46 01 	sts	0x0146, r25
     e20:	80 93 45 01 	sts	0x0145, r24
			lastAbsError = absErr;
     e24:	f0 93 44 01 	sts	0x0144, r31
     e28:	e0 93 43 01 	sts	0x0143, r30
			lastErrorSign = (uint8_t)(error16>>8)&0x80;
     e2c:	8d 2f       	mov	r24, r29
     e2e:	99 27       	eor	r25, r25
     e30:	87 fd       	sbrc	r24, 7
     e32:	9a 95       	dec	r25
     e34:	80 78       	andi	r24, 0x80	; 128
     e36:	80 93 3c 01 	sts	0x013C, r24
		}
	}
	lastProcessValue = processValue;
     e3a:	10 93 3e 01 	sts	0x013E, r17
     e3e:	00 93 3d 01 	sts	0x013D, r16
			}
		}
	}
#endif

	if (config.I_Factor > 0) {
     e42:	90 90 91 02 	lds	r9, 0x0291
     e46:	99 20       	and	r9, r9
     e48:	b1 f1       	breq	.+108    	; 0xeb6 <CTL_update+0x436>
		int32_t maxSumError;
		// for overload protection: maximum is scalling_factor*scalling_factor*50/1 = 3276800
		maxSumError = ((int32_t)scalling_factor*(int32_t)scalling_factor*50)/config.I_Factor;
     e4a:	29 2d       	mov	r18, r9
     e4c:	30 e0       	ldi	r19, 0x00	; 0
     e4e:	40 e0       	ldi	r20, 0x00	; 0
     e50:	50 e0       	ldi	r21, 0x00	; 0
     e52:	60 e0       	ldi	r22, 0x00	; 0
     e54:	70 e0       	ldi	r23, 0x00	; 0
     e56:	82 e3       	ldi	r24, 0x32	; 50
     e58:	90 e0       	ldi	r25, 0x00	; 0
     e5a:	0e 94 66 1c 	call	0x38cc	; 0x38cc <__divmodsi4>
     e5e:	c9 01       	movw	r24, r18
     e60:	da 01       	movw	r26, r20
		if(sumError > maxSumError){
     e62:	e0 90 38 01 	lds	r14, 0x0138
     e66:	f0 90 39 01 	lds	r15, 0x0139
     e6a:	00 91 3a 01 	lds	r16, 0x013A
     e6e:	10 91 3b 01 	lds	r17, 0x013B
     e72:	8e 15       	cp	r24, r14
     e74:	9f 05       	cpc	r25, r15
     e76:	a0 07       	cpc	r26, r16
     e78:	b1 07       	cpc	r27, r17
     e7a:	4c f4       	brge	.+18     	; 0xe8e <CTL_update+0x40e>
			sumError = maxSumError;
     e7c:	80 93 38 01 	sts	0x0138, r24
     e80:	90 93 39 01 	sts	0x0139, r25
     e84:	a0 93 3a 01 	sts	0x013A, r26
     e88:	b0 93 3b 01 	sts	0x013B, r27
     e8c:	14 c0       	rjmp	.+40     	; 0xeb6 <CTL_update+0x436>
		} else if(sumError < -maxSumError){
     e8e:	22 27       	eor	r18, r18
     e90:	33 27       	eor	r19, r19
     e92:	a9 01       	movw	r20, r18
     e94:	28 1b       	sub	r18, r24
     e96:	39 0b       	sbc	r19, r25
     e98:	4a 0b       	sbc	r20, r26
     e9a:	5b 0b       	sbc	r21, r27
     e9c:	e2 16       	cp	r14, r18
     e9e:	f3 06       	cpc	r15, r19
     ea0:	04 07       	cpc	r16, r20
     ea2:	15 07       	cpc	r17, r21
     ea4:	44 f4       	brge	.+16     	; 0xeb6 <CTL_update+0x436>
			sumError = -maxSumError;
     ea6:	20 93 38 01 	sts	0x0138, r18
     eaa:	30 93 39 01 	sts	0x0139, r19
     eae:	40 93 3a 01 	sts	0x013A, r20
     eb2:	50 93 3b 01 	sts	0x013B, r21
		}
	}

	pi_term = (int32_t)(error16);
     eb6:	7e 01       	movw	r14, r28
     eb8:	00 27       	eor	r16, r16
     eba:	f7 fc       	sbrc	r15, 7
     ebc:	00 95       	com	r16
     ebe:	10 2f       	mov	r17, r16
	pi_term *=  pi_term * (int32_t)config.P3_Factor;
     ec0:	c8 01       	movw	r24, r16
     ec2:	b7 01       	movw	r22, r14
     ec4:	a8 01       	movw	r20, r16
     ec6:	97 01       	movw	r18, r14
     ec8:	0e 94 e5 1b 	call	0x37ca	; 0x37ca <__mulsi3>
     ecc:	20 91 8f 02 	lds	r18, 0x028F
     ed0:	30 e0       	ldi	r19, 0x00	; 0
     ed2:	40 e0       	ldi	r20, 0x00	; 0
     ed4:	50 e0       	ldi	r21, 0x00	; 0
     ed6:	0e 94 e5 1b 	call	0x37ca	; 0x37ca <__mulsi3>
	pi_term >>= 8;
     eda:	67 2f       	mov	r22, r23
     edc:	78 2f       	mov	r23, r24
     ede:	89 2f       	mov	r24, r25
     ee0:	99 27       	eor	r25, r25
     ee2:	87 fd       	sbrc	r24, 7
     ee4:	9a 95       	dec	r25
	pi_term += ((uint16_t)config.P_Factor <<8);
     ee6:	30 91 90 02 	lds	r19, 0x0290
     eea:	20 e0       	ldi	r18, 0x00	; 0
     eec:	40 e0       	ldi	r20, 0x00	; 0
     eee:	50 e0       	ldi	r21, 0x00	; 0
     ef0:	62 0f       	add	r22, r18
     ef2:	73 1f       	adc	r23, r19
     ef4:	84 1f       	adc	r24, r20
     ef6:	95 1f       	adc	r25, r21
	pi_term *= (int32_t)error16;
     ef8:	a8 01       	movw	r20, r16
     efa:	97 01       	movw	r18, r14
     efc:	0e 94 e5 1b 	call	0x37ca	; 0x37ca <__mulsi3>
     f00:	5b 01       	movw	r10, r22
     f02:	6c 01       	movw	r12, r24
	pi_term += (int32_t)(config.I_Factor) * sumError; // maximum is 65536*50=(scalling_factor*scalling_factor*50/I_Factor)*I_Factor
     f04:	e0 90 96 02 	lds	r14, 0x0296
     f08:	ff 24       	eor	r15, r15
     f0a:	00 e0       	ldi	r16, 0x00	; 0
     f0c:	10 e0       	ldi	r17, 0x00	; 0
     f0e:	87 01       	movw	r16, r14
     f10:	ff 24       	eor	r15, r15
     f12:	ee 24       	eor	r14, r14
     f14:	69 2d       	mov	r22, r9
     f16:	70 e0       	ldi	r23, 0x00	; 0
     f18:	80 e0       	ldi	r24, 0x00	; 0
     f1a:	90 e0       	ldi	r25, 0x00	; 0
     f1c:	20 91 38 01 	lds	r18, 0x0138
     f20:	30 91 39 01 	lds	r19, 0x0139
     f24:	40 91 3a 01 	lds	r20, 0x013A
     f28:	50 91 3b 01 	lds	r21, 0x013B
     f2c:	0e 94 e5 1b 	call	0x37ca	; 0x37ca <__mulsi3>
     f30:	e6 0e       	add	r14, r22
     f32:	f7 1e       	adc	r15, r23
     f34:	08 1f       	adc	r16, r24
     f36:	19 1f       	adc	r17, r25
	/* 
	 * pi_term - > for overload limit: 
	 * maximum is +-(((255*1200*1200/256)+255)*1200+65536*50)
	 * = +-1724832800 fit into signed 32bit
	 */
	pi_term += (int32_t)(config.valve_center)*scalling_factor*scalling_factor;
     f38:	ea 0c       	add	r14, r10
     f3a:	fb 1c       	adc	r15, r11
     f3c:	0c 1d       	adc	r16, r12
     f3e:	1d 1d       	adc	r17, r13
	pi_term >>= 8; // /=scalling_factor
     f40:	55 27       	eor	r21, r21
     f42:	17 fd       	sbrc	r17, 7
     f44:	5a 95       	dec	r21
     f46:	41 2f       	mov	r20, r17
     f48:	30 2f       	mov	r19, r16
     f4a:	2f 2d       	mov	r18, r15

	if(pi_term > (int32_t)((uint16_t)config.valve_max*scalling_factor)){
     f4c:	10 91 97 02 	lds	r17, 0x0297
     f50:	91 2f       	mov	r25, r17
     f52:	80 e0       	ldi	r24, 0x00	; 0
     f54:	a0 e0       	ldi	r26, 0x00	; 0
     f56:	b0 e0       	ldi	r27, 0x00	; 0
     f58:	82 17       	cp	r24, r18
     f5a:	93 07       	cpc	r25, r19
     f5c:	a4 07       	cpc	r26, r20
     f5e:	b5 07       	cpc	r27, r21
     f60:	fc f0       	brlt	.+62     	; 0xfa0 <CTL_update+0x520>
		return config.valve_max;
	} else if(pi_term < 0){
     f62:	57 ff       	sbrs	r21, 7
     f64:	03 c0       	rjmp	.+6      	; 0xf6c <CTL_update+0x4ec>
		return config.valve_min;
     f66:	10 91 95 02 	lds	r17, 0x0295
     f6a:	1a c0       	rjmp	.+52     	; 0xfa0 <CTL_update+0x520>
	}
	// now we can use 16bit value ( 0 < pi_term < 25600 )
	{
		uint16_t pi_term16 = pi_term;
     f6c:	c9 01       	movw	r24, r18

		{
			bool gt = (uint8_t)(pi_term16>>8 /*/scalling_factor*/) >= old_result;
			// asymetric round, ignore changes < 3/4%
			pi_term16 += scalling_factor/2; // prepare for round
     f6e:	20 58       	subi	r18, 0x80	; 128
     f70:	3f 4f       	sbci	r19, 0xFF	; 255
			if (gt) {
     f72:	97 15       	cp	r25, r7
     f74:	30 f0       	brcs	.+12     	; 0xf82 <CTL_update+0x502>
				pi_term16 -= config.valve_hysteresis; // prepare for round
     f76:	80 91 98 02 	lds	r24, 0x0298
     f7a:	a9 01       	movw	r20, r18
     f7c:	48 1b       	sub	r20, r24
     f7e:	51 09       	sbc	r21, r1
     f80:	05 c0       	rjmp	.+10     	; 0xf8c <CTL_update+0x50c>
			} else {
				pi_term16 += config.valve_hysteresis; // prepare for round
     f82:	80 91 98 02 	lds	r24, 0x0298
     f86:	a9 01       	movw	r20, r18
     f88:	48 0f       	add	r20, r24
     f8a:	51 1d       	adc	r21, r1
			}
			pi_term16 >>= 8; // /= scalling_factor;
     f8c:	25 2f       	mov	r18, r21
     f8e:	33 27       	eor	r19, r19
		}
		if(pi_term16 < config.valve_min) {
     f90:	10 91 95 02 	lds	r17, 0x0295
     f94:	81 2f       	mov	r24, r17
     f96:	90 e0       	ldi	r25, 0x00	; 0
     f98:	28 17       	cp	r18, r24
     f9a:	39 07       	cpc	r19, r25
     f9c:	08 f0       	brcs	.+2      	; 0xfa0 <CTL_update+0x520>
			return config.valve_min;
		}

		return (uint8_t)pi_term16;
     f9e:	12 2f       	mov	r17, r18
					new_valve = config.valve_max;
				} 
				else {
					new_valve = pid_Controller(calc_temp(temp),temp_average,valveHistory[0],updateNow);
				}
				CTL_valve_wanted = new_valve;
     fa0:	10 93 32 01 	sts	0x0132, r17
			}
			if(new_valve != CTL_valve_old_wanted){
     fa4:	80 91 33 01 	lds	r24, 0x0133
     fa8:	18 17       	cp	r17, r24
     faa:	21 f0       	breq	.+8      	; 0xfb4 <CTL_update+0x534>
				CTL_valve_old_wanted = new_valve;
     fac:	10 93 33 01 	sts	0x0133, r17
				COM_send_valve_event(new_valve);
     fb0:	81 2f       	mov	r24, r17
     fb2:	c4 d4       	rcall	.+2440   	; 0x193c <COM_send_valve_event>
			}
			CTL_temp_wanted_last=temp;
     fb4:	80 92 06 01 	sts	0x0106, r8
					} 
					else  {
						valveHistory[i]=valveHistory[i-1];
					}
				}
				valveHistory[0]=new_valve;
     fb8:	10 93 84 02 	sts	0x0284, r17
			}
		}
		//COM_print_debug(0);
		PID_force_update = -1; // invalid value = not used
     fbc:	8f ef       	ldi	r24, 0xFF	; 255
     fbe:	80 93 0c 01 	sts	0x010C, r24
	}
	// batt error detection
	if (bat_average) {
     fc2:	40 91 24 02 	lds	r20, 0x0224
     fc6:	50 91 25 02 	lds	r21, 0x0225
     fca:	41 15       	cp	r20, r1
     fcc:	51 05       	cpc	r21, r1
     fce:	f9 f0       	breq	.+62     	; 0x100e <CTL_update+0x58e>
		if (bat_average < 20*(uint16_t)config.bat_low_thld) {
     fd0:	80 91 ae 02 	lds	r24, 0x02AE
     fd4:	24 e1       	ldi	r18, 0x14	; 20
     fd6:	82 9f       	mul	r24, r18
     fd8:	c0 01       	movw	r24, r0
     fda:	11 24       	eor	r1, r1
     fdc:	48 17       	cp	r20, r24
     fde:	59 07       	cpc	r21, r25
     fe0:	30 f4       	brcc	.+12     	; 0xfee <CTL_update+0x56e>
			CTL_error |=  CTL_ERR_BATT_LOW | CTL_ERR_BATT_WARNING;
     fe2:	80 91 37 01 	lds	r24, 0x0137
     fe6:	80 6c       	ori	r24, 0xC0	; 192
     fe8:	80 93 37 01 	sts	0x0137, r24
     fec:	10 c0       	rjmp	.+32     	; 0x100e <CTL_update+0x58e>
		}
		else {
			if (bat_average < 20*(uint16_t)config.bat_warning_thld) {
     fee:	80 91 ad 02 	lds	r24, 0x02AD
     ff2:	82 9f       	mul	r24, r18
     ff4:	c0 01       	movw	r24, r0
     ff6:	11 24       	eor	r1, r1
     ff8:	20 91 37 01 	lds	r18, 0x0137
     ffc:	48 17       	cp	r20, r24
     ffe:	59 07       	cpc	r21, r25
    1000:	18 f4       	brcc	.+6      	; 0x1008 <CTL_update+0x588>
				CTL_error |=  CTL_ERR_BATT_WARNING;
#if (BATT_ERROR_REVERSIBLE)
				CTL_error &= ~CTL_ERR_BATT_LOW;
    1002:	20 64       	ori	r18, 0x40	; 64
    1004:	2f 77       	andi	r18, 0x7F	; 127
    1006:	01 c0       	rjmp	.+2      	; 0x100a <CTL_update+0x58a>
#endif
			} else {
#if (BATT_ERROR_REVERSIBLE)
				CTL_error &= ~(CTL_ERR_BATT_WARNING|CTL_ERR_BATT_LOW);
    1008:	2f 73       	andi	r18, 0x3F	; 63
    100a:	20 93 37 01 	sts	0x0137, r18
#endif
			}
		}
	}
}
    100e:	cd b7       	in	r28, 0x3d	; 61
    1010:	de b7       	in	r29, 0x3e	; 62
    1012:	ed e0       	ldi	r30, 0x0D	; 13
    1014:	0c 94 a2 1c 	jmp	0x3944	; 0x3944 <__epilogue_restores__+0xa>

00001018 <watch>:
};

uint16_t watch(uint8_t addr) {
	uint16_t p;

	if (addr >= WATCH_N) return WATCH_LAYOUT;
    1018:	8b 30       	cpi	r24, 0x0B	; 11
    101a:	18 f0       	brcs	.+6      	; 0x1022 <watch+0xa>
    101c:	25 e8       	ldi	r18, 0x85	; 133
    101e:	30 e0       	ldi	r19, 0x00	; 0
    1020:	11 c0       	rjmp	.+34     	; 0x1044 <watch+0x2c>

	p=pgm_read_word(&watch_map[addr]);
    1022:	e8 2f       	mov	r30, r24
    1024:	f0 e0       	ldi	r31, 0x00	; 0
    1026:	ee 0f       	add	r30, r30
    1028:	ff 1f       	adc	r31, r31
    102a:	e4 5b       	subi	r30, 0xB4	; 180
    102c:	fe 4f       	sbci	r31, 0xFE	; 254
    102e:	a5 91       	lpm	r26, Z+
    1030:	b4 91       	lpm	r27, Z+
	if ((p&B_MASK)==B16) { // 16 bit value
    1032:	b7 ff       	sbrs	r27, 7
    1034:	04 c0       	rjmp	.+8      	; 0x103e <watch+0x26>
		return *((uint16_t *)(p & ~B_MASK));
    1036:	bf 77       	andi	r27, 0x7F	; 127
    1038:	2d 91       	ld	r18, X+
    103a:	3c 91       	ld	r19, X
    103c:	03 c0       	rjmp	.+6      	; 0x1044 <watch+0x2c>
	} else { // 8 bit value
		return (uint16_t)(*((uint8_t *)(p)));
    103e:	8c 91       	ld	r24, X
    1040:	28 2f       	mov	r18, r24
    1042:	30 e0       	ldi	r19, 0x00	; 0
	}
}
    1044:	c9 01       	movw	r24, r18
    1046:	08 95       	ret

00001048 <COM_putchar>:
 *******************************************************************************
 *  \brief transmit bytes
 *
 *  \note
 ******************************************************************************/
void COM_putchar(char c) {
    1048:	58 2f       	mov	r21, r24
	cli();
    104a:	f8 94       	cli
	if ((tx_buff_in+1)%TX_BUFF_SIZE!=tx_buff_out) {
    104c:	40 91 4f 01 	lds	r20, 0x014F
    1050:	e4 2f       	mov	r30, r20
    1052:	f0 e0       	ldi	r31, 0x00	; 0
    1054:	9f 01       	movw	r18, r30
    1056:	2f 5f       	subi	r18, 0xFF	; 255
    1058:	3f 4f       	sbci	r19, 0xFF	; 255
    105a:	2f 77       	andi	r18, 0x7F	; 127
    105c:	30 70       	andi	r19, 0x00	; 0
    105e:	80 91 50 01 	lds	r24, 0x0150
    1062:	90 e0       	ldi	r25, 0x00	; 0
    1064:	28 17       	cp	r18, r24
    1066:	39 07       	cpc	r19, r25
    1068:	39 f0       	breq	.+14     	; 0x1078 <COM_putchar+0x30>
		tx_buff[tx_buff_in++]=c;
    106a:	ef 5a       	subi	r30, 0xAF	; 175
    106c:	fe 4f       	sbci	r31, 0xFE	; 254
    106e:	50 83       	st	Z, r21
		tx_buff_in%=TX_BUFF_SIZE;
    1070:	4f 5f       	subi	r20, 0xFF	; 255
    1072:	4f 77       	andi	r20, 0x7F	; 127
    1074:	40 93 4f 01 	sts	0x014F, r20
	}
	sei();
    1078:	78 94       	sei
}
    107a:	08 95       	ret

0000107c <COM_tx_char_isr>:
 *
 *  \note
 ******************************************************************************/
char COM_tx_char_isr(void) {
	char c='\0';
	if (tx_buff_in!=tx_buff_out) {
    107c:	90 91 50 01 	lds	r25, 0x0150
    1080:	80 91 4f 01 	lds	r24, 0x014F
    1084:	89 17       	cp	r24, r25
    1086:	11 f4       	brne	.+4      	; 0x108c <COM_tx_char_isr+0x10>
    1088:	80 e0       	ldi	r24, 0x00	; 0
    108a:	08 95       	ret
		c=tx_buff[tx_buff_out++];
    108c:	e9 2f       	mov	r30, r25
    108e:	f0 e0       	ldi	r31, 0x00	; 0
    1090:	ef 5a       	subi	r30, 0xAF	; 175
    1092:	fe 4f       	sbci	r31, 0xFE	; 254
    1094:	80 81       	ld	r24, Z
		tx_buff_out%=TX_BUFF_SIZE;
    1096:	9f 5f       	subi	r25, 0xFF	; 255
    1098:	9f 77       	andi	r25, 0x7F	; 127
    109a:	90 93 50 01 	sts	0x0150, r25
	}
	return c;
}
    109e:	08 95       	ret

000010a0 <COM_rx_char_isr>:
 *******************************************************************************
 *  \brief support for interrupt for receive bytes
 *
 *  \note
 ******************************************************************************/
void COM_rx_char_isr(char c) {
    10a0:	28 2f       	mov	r18, r24
	if (c!='\0') {  // ascii based protocol, \0 char is not alloweed, ignore it
    10a2:	88 23       	and	r24, r24
    10a4:	f9 f0       	breq	.+62     	; 0x10e4 <COM_rx_char_isr+0x44>

		if (c=='\r') c='\n';  // mask diffrence between operating systems
    10a6:	8d 30       	cpi	r24, 0x0D	; 13
    10a8:	09 f4       	brne	.+2      	; 0x10ac <COM_rx_char_isr+0xc>
    10aa:	2a e0       	ldi	r18, 0x0A	; 10
		rx_buff[rx_buff_in++]=c;
    10ac:	80 91 4d 01 	lds	r24, 0x014D
    10b0:	e8 2f       	mov	r30, r24
    10b2:	f0 e0       	ldi	r31, 0x00	; 0
    10b4:	ef 52       	subi	r30, 0x2F	; 47
    10b6:	fe 4f       	sbci	r31, 0xFE	; 254
    10b8:	20 83       	st	Z, r18
		rx_buff_in%=RX_BUFF_SIZE;
    10ba:	98 2f       	mov	r25, r24
    10bc:	9f 5f       	subi	r25, 0xFF	; 255
    10be:	9f 73       	andi	r25, 0x3F	; 63
    10c0:	90 93 4d 01 	sts	0x014D, r25
		if (rx_buff_in==rx_buff_out) { // buffer overloaded, drop oldest char 
    10c4:	80 91 4e 01 	lds	r24, 0x014E
    10c8:	98 17       	cp	r25, r24
    10ca:	21 f4       	brne	.+8      	; 0x10d4 <COM_rx_char_isr+0x34>
			rx_buff_out++;
			rx_buff_out%=RX_BUFF_SIZE;
    10cc:	9f 5f       	subi	r25, 0xFF	; 255
    10ce:	9f 73       	andi	r25, 0x3F	; 63
    10d0:	90 93 4e 01 	sts	0x014E, r25
		}

		if (c=='\n') {
    10d4:	2a 30       	cpi	r18, 0x0A	; 10
    10d6:	31 f4       	brne	.+12     	; 0x10e4 <COM_rx_char_isr+0x44>
			task |= TASK_COM;
    10d8:	f6 9a       	sbi	0x1e, 6	; 30
			COM_requests++;
    10da:	80 91 11 02 	lds	r24, 0x0211
    10de:	8f 5f       	subi	r24, 0xFF	; 255
    10e0:	80 93 11 02 	sts	0x0211, r24
    10e4:	08 95       	ret

000010e6 <COM_getchar>:
 *
 *  \note
 ******************************************************************************/
static char COM_getchar(void) {
	char c;
	cli();
    10e6:	f8 94       	cli
	if (rx_buff_in!=rx_buff_out) {
    10e8:	90 91 4e 01 	lds	r25, 0x014E
    10ec:	80 91 4d 01 	lds	r24, 0x014D
    10f0:	89 17       	cp	r24, r25
    10f2:	79 f0       	breq	.+30     	; 0x1112 <COM_getchar+0x2c>
		c=rx_buff[rx_buff_out++];
    10f4:	e9 2f       	mov	r30, r25
    10f6:	f0 e0       	ldi	r31, 0x00	; 0
    10f8:	ef 52       	subi	r30, 0x2F	; 47
    10fa:	fe 4f       	sbci	r31, 0xFE	; 254
    10fc:	e0 81       	ld	r30, Z
		rx_buff_out%=RX_BUFF_SIZE;
    10fe:	9f 5f       	subi	r25, 0xFF	; 255
    1100:	9f 73       	andi	r25, 0x3F	; 63
    1102:	90 93 4e 01 	sts	0x014E, r25
		COM_requests--;
    1106:	80 91 11 02 	lds	r24, 0x0211
    110a:	81 50       	subi	r24, 0x01	; 1
    110c:	80 93 11 02 	sts	0x0211, r24
    1110:	03 c0       	rjmp	.+6      	; 0x1118 <COM_getchar+0x32>
	} else {
		COM_requests=0;
    1112:	10 92 11 02 	sts	0x0211, r1
    1116:	e0 e0       	ldi	r30, 0x00	; 0
		c='\0';
	}
	sei();
    1118:	78 94       	sei
	return c;
}
    111a:	8e 2f       	mov	r24, r30
    111c:	08 95       	ret

0000111e <print_decXX>:
 *******************************************************************************
 *  \brief helper function print 2 digit dec number
 *
 *  \note only unsigned numbers
 ******************************************************************************/
static void print_decXX(uint8_t i) {
    111e:	1f 93       	push	r17
    1120:	18 2f       	mov	r17, r24
	if (i>=100) {
    1122:	84 36       	cpi	r24, 0x64	; 100
    1124:	50 f0       	brcs	.+20     	; 0x113a <print_decXX+0x1c>
		COM_putchar(i/100+'0');
    1126:	64 e6       	ldi	r22, 0x64	; 100
    1128:	0e 94 04 1c 	call	0x3808	; 0x3808 <__udivmodqi4>
    112c:	80 5d       	subi	r24, 0xD0	; 208
    112e:	8c df       	rcall	.-232    	; 0x1048 <COM_putchar>
		i%=100;
    1130:	81 2f       	mov	r24, r17
    1132:	64 e6       	ldi	r22, 0x64	; 100
    1134:	0e 94 04 1c 	call	0x3808	; 0x3808 <__udivmodqi4>
    1138:	19 2f       	mov	r17, r25
	}
	COM_putchar(i/10+'0');
    113a:	81 2f       	mov	r24, r17
    113c:	6a e0       	ldi	r22, 0x0A	; 10
    113e:	0e 94 04 1c 	call	0x3808	; 0x3808 <__udivmodqi4>
    1142:	80 5d       	subi	r24, 0xD0	; 208
    1144:	81 df       	rcall	.-254    	; 0x1048 <COM_putchar>
	COM_putchar(i%10+'0');
    1146:	81 2f       	mov	r24, r17
    1148:	6a e0       	ldi	r22, 0x0A	; 10
    114a:	0e 94 04 1c 	call	0x3808	; 0x3808 <__udivmodqi4>
    114e:	89 2f       	mov	r24, r25
    1150:	80 5d       	subi	r24, 0xD0	; 208
    1152:	7a df       	rcall	.-268    	; 0x1048 <COM_putchar>
}
    1154:	1f 91       	pop	r17
    1156:	08 95       	ret

00001158 <print_digit>:
 *  \brief helper function print 1 digit dec number
 *
 *  \note only unsigned numbers
 ******************************************************************************/
static void print_digit(uint8_t i) {
	COM_putchar(i%10+'0');
    1158:	6a e0       	ldi	r22, 0x0A	; 10
    115a:	0e 94 04 1c 	call	0x3808	; 0x3808 <__udivmodqi4>
    115e:	89 2f       	mov	r24, r25
    1160:	80 5d       	subi	r24, 0xD0	; 208
}
    1162:	72 cf       	rjmp	.-284    	; 0x1048 <COM_putchar>

00001164 <print_decXXX>:
 *******************************************************************************
 *  \brief helper function print 3 digit dec number
 *
 *  \note only unsigned numbers
 ******************************************************************************/
static void print_decXXX(uint8_t i) {
    1164:	1f 93       	push	r17
    1166:	18 2f       	mov	r17, r24
	if (i>=100) {
    1168:	84 36       	cpi	r24, 0x64	; 100
    116a:	58 f0       	brcs	.+22     	; 0x1182 <print_decXXX+0x1e>
		COM_putchar(i/100+'0');
    116c:	64 e6       	ldi	r22, 0x64	; 100
    116e:	0e 94 04 1c 	call	0x3808	; 0x3808 <__udivmodqi4>
    1172:	80 5d       	subi	r24, 0xD0	; 208
    1174:	69 df       	rcall	.-302    	; 0x1048 <COM_putchar>
		i%=100;
    1176:	81 2f       	mov	r24, r17
    1178:	64 e6       	ldi	r22, 0x64	; 100
    117a:	0e 94 04 1c 	call	0x3808	; 0x3808 <__udivmodqi4>
    117e:	19 2f       	mov	r17, r25
    1180:	02 c0       	rjmp	.+4      	; 0x1186 <print_decXXX+0x22>
	}
	else{
		COM_putchar('0');
    1182:	80 e3       	ldi	r24, 0x30	; 48
    1184:	61 df       	rcall	.-318    	; 0x1048 <COM_putchar>
	}
	COM_putchar(i/10+'0');
    1186:	81 2f       	mov	r24, r17
    1188:	6a e0       	ldi	r22, 0x0A	; 10
    118a:	0e 94 04 1c 	call	0x3808	; 0x3808 <__udivmodqi4>
    118e:	80 5d       	subi	r24, 0xD0	; 208
    1190:	5b df       	rcall	.-330    	; 0x1048 <COM_putchar>
	COM_putchar(i%10+'0');
    1192:	81 2f       	mov	r24, r17
    1194:	6a e0       	ldi	r22, 0x0A	; 10
    1196:	0e 94 04 1c 	call	0x3808	; 0x3808 <__udivmodqi4>
    119a:	89 2f       	mov	r24, r25
    119c:	80 5d       	subi	r24, 0xD0	; 208
    119e:	54 df       	rcall	.-344    	; 0x1048 <COM_putchar>
}
    11a0:	1f 91       	pop	r17
    11a2:	08 95       	ret

000011a4 <print_decXXXX>:
 *******************************************************************************
 *  \brief helper function print 4 digit dec number
 *
 *  \note only unsigned numbers
 ******************************************************************************/
static void print_decXXXX(uint16_t i) {
    11a4:	0f 93       	push	r16
    11a6:	1f 93       	push	r17
    11a8:	8c 01       	movw	r16, r24
	print_decXX(i/100);
    11aa:	64 e6       	ldi	r22, 0x64	; 100
    11ac:	70 e0       	ldi	r23, 0x00	; 0
    11ae:	0e 94 1d 1c 	call	0x383a	; 0x383a <__udivmodhi4>
    11b2:	86 2f       	mov	r24, r22
    11b4:	b4 df       	rcall	.-152    	; 0x111e <print_decXX>
	print_decXX(i%100);
    11b6:	c8 01       	movw	r24, r16
    11b8:	64 e6       	ldi	r22, 0x64	; 100
    11ba:	70 e0       	ldi	r23, 0x00	; 0
    11bc:	0e 94 1d 1c 	call	0x383a	; 0x383a <__udivmodhi4>
    11c0:	ae df       	rcall	.-164    	; 0x111e <print_decXX>
}
    11c2:	1f 91       	pop	r17
    11c4:	0f 91       	pop	r16
    11c6:	08 95       	ret

000011c8 <print_hexXX>:
 *******************************************************************************
 *  \brief helper function print 2 digit hex number
 *
 *  \note only unsigned numbers
 ******************************************************************************/
static void print_hexXX(uint8_t i) {
    11c8:	1f 93       	push	r17
    11ca:	18 2f       	mov	r17, r24
	uint8_t x = i>>4;
    11cc:	82 95       	swap	r24
    11ce:	8f 70       	andi	r24, 0x0F	; 15
	if (x>=10) {
    11d0:	8a 30       	cpi	r24, 0x0A	; 10
    11d2:	10 f0       	brcs	.+4      	; 0x11d8 <print_hexXX+0x10>
		COM_putchar(x+'a'-10);	
    11d4:	89 5a       	subi	r24, 0xA9	; 169
    11d6:	01 c0       	rjmp	.+2      	; 0x11da <print_hexXX+0x12>
	} else {
		COM_putchar(x+'0');
    11d8:	80 5d       	subi	r24, 0xD0	; 208
    11da:	36 df       	rcall	.-404    	; 0x1048 <COM_putchar>
	}	
	x = i & 0xf;
    11dc:	81 2f       	mov	r24, r17
    11de:	8f 70       	andi	r24, 0x0F	; 15
	if (x>=10) {
    11e0:	8a 30       	cpi	r24, 0x0A	; 10
    11e2:	10 f0       	brcs	.+4      	; 0x11e8 <print_hexXX+0x20>
		COM_putchar(x+'a'-10);	
    11e4:	89 5a       	subi	r24, 0xA9	; 169
    11e6:	01 c0       	rjmp	.+2      	; 0x11ea <print_hexXX+0x22>
	} else {
		COM_putchar(x+'0');
    11e8:	80 5d       	subi	r24, 0xD0	; 208
    11ea:	2e df       	rcall	.-420    	; 0x1048 <COM_putchar>
	}	
}
    11ec:	1f 91       	pop	r17
    11ee:	08 95       	ret

000011f0 <print_hexXXXX>:
 *******************************************************************************
 *  \brief helper function print 4 digit hex number
 *
 *  \note
 ******************************************************************************/
static void print_hexXXXX(uint16_t i) {
    11f0:	1f 93       	push	r17
    11f2:	18 2f       	mov	r17, r24
	print_hexXX(i>>8);
    11f4:	89 2f       	mov	r24, r25
    11f6:	e8 df       	rcall	.-48     	; 0x11c8 <print_hexXX>
	print_hexXX(i&0xff);
    11f8:	81 2f       	mov	r24, r17
    11fa:	e6 df       	rcall	.-52     	; 0x11c8 <print_hexXX>
}
    11fc:	1f 91       	pop	r17
    11fe:	08 95       	ret

00001200 <print_s_p>:
 *******************************************************************************
 *  \brief helper function print string without \n2 digit dec number
 *
 *  \note
 ******************************************************************************/
static void print_s_p(const char * s) {
    1200:	cf 93       	push	r28
    1202:	df 93       	push	r29
    1204:	ec 01       	movw	r28, r24
	char c;
	for (c = pgm_read_byte(s); c; ++s, c = pgm_read_byte(s)) {
    1206:	fc 01       	movw	r30, r24
    1208:	84 91       	lpm	r24, Z+
    120a:	04 c0       	rjmp	.+8      	; 0x1214 <print_s_p+0x14>
		COM_putchar(c);
    120c:	1d df       	rcall	.-454    	; 0x1048 <COM_putchar>
 *
 *  \note
 ******************************************************************************/
static void print_s_p(const char * s) {
	char c;
	for (c = pgm_read_byte(s); c; ++s, c = pgm_read_byte(s)) {
    120e:	21 96       	adiw	r28, 0x01	; 1
    1210:	fe 01       	movw	r30, r28
    1212:	84 91       	lpm	r24, Z+
    1214:	88 23       	and	r24, r24
    1216:	d1 f7       	brne	.-12     	; 0x120c <print_s_p+0xc>
		COM_putchar(c);
	}
}
    1218:	df 91       	pop	r29
    121a:	cf 91       	pop	r28
    121c:	08 95       	ret

0000121e <COM_hex_parse>:
 *  \brief parse hex number (helper function)
 *
 *	\note hex numbers use ONLY lowcase chars, upcase is reserved for commands
 *	
 ******************************************************************************/
static char COM_hex_parse (uint8_t n) {
    121e:	0f 93       	push	r16
    1220:	1f 93       	push	r17
    1222:	08 2f       	mov	r16, r24
    1224:	10 e0       	ldi	r17, 0x00	; 0
    1226:	1b c0       	rjmp	.+54     	; 0x125e <COM_hex_parse+0x40>
	uint8_t i;
	for (i=0;i<n;i++) {
		uint8_t c = COM_getchar()-'0';
    1228:	5e df       	rcall	.-324    	; 0x10e6 <COM_getchar>
    122a:	98 2f       	mov	r25, r24
    122c:	28 2f       	mov	r18, r24
    122e:	20 53       	subi	r18, 0x30	; 48
		if ( c>9 ) {  // chars < '0' overload var c
    1230:	2a 30       	cpi	r18, 0x0A	; 10
    1232:	20 f0       	brcs	.+8      	; 0x123c <COM_hex_parse+0x1e>
			if ((c>=('a'-'0')) && (c<=('f'-'0'))) {
    1234:	81 56       	subi	r24, 0x61	; 97
    1236:	86 30       	cpi	r24, 0x06	; 6
    1238:	c8 f4       	brcc	.+50     	; 0x126c <COM_hex_parse+0x4e>
				c-= (('a'-'0')-10);
    123a:	27 52       	subi	r18, 0x27	; 39
    123c:	e1 2f       	mov	r30, r17
    123e:	e6 95       	lsr	r30
			} else return c+'0';
		}
		if (i&1) {
    1240:	10 ff       	sbrs	r17, 0
    1242:	06 c0       	rjmp	.+12     	; 0x1250 <COM_hex_parse+0x32>
			com_hex[i>>1]+=c;
    1244:	f0 e0       	ldi	r31, 0x00	; 0
    1246:	ee 5e       	subi	r30, 0xEE	; 238
    1248:	fd 4f       	sbci	r31, 0xFD	; 253
    124a:	80 81       	ld	r24, Z
    124c:	28 0f       	add	r18, r24
    124e:	05 c0       	rjmp	.+10     	; 0x125a <COM_hex_parse+0x3c>
		} else {
			com_hex[i>>1]=(uint8_t)c<<4;
    1250:	f0 e0       	ldi	r31, 0x00	; 0
    1252:	ee 5e       	subi	r30, 0xEE	; 238
    1254:	fd 4f       	sbci	r31, 0xFD	; 253
    1256:	22 95       	swap	r18
    1258:	20 7f       	andi	r18, 0xF0	; 240
    125a:	20 83       	st	Z, r18
 *	\note hex numbers use ONLY lowcase chars, upcase is reserved for commands
 *	
 ******************************************************************************/
static char COM_hex_parse (uint8_t n) {
	uint8_t i;
	for (i=0;i<n;i++) {
    125c:	1f 5f       	subi	r17, 0xFF	; 255
    125e:	10 17       	cp	r17, r16
    1260:	18 f3       	brcs	.-58     	; 0x1228 <COM_hex_parse+0xa>
			com_hex[i>>1]=(uint8_t)c<<4;
		}
	}
	{
		char c;
		if ((c=COM_getchar())!='\n') return c;
    1262:	41 df       	rcall	.-382    	; 0x10e6 <COM_getchar>
    1264:	98 2f       	mov	r25, r24
    1266:	8a 30       	cpi	r24, 0x0A	; 10
    1268:	09 f4       	brne	.+2      	; 0x126c <COM_hex_parse+0x4e>
    126a:	90 e0       	ldi	r25, 0x00	; 0
	}
	return '\0';
}
    126c:	89 2f       	mov	r24, r25
    126e:	1f 91       	pop	r17
    1270:	0f 91       	pop	r16
    1272:	08 95       	ret

00001274 <print_idx>:
/*!
 *******************************************************************************
 *  \brief print X[xx]=
 *
 ******************************************************************************/
static void print_idx(char t, uint8_t i) {
    1274:	1f 93       	push	r17
    1276:	16 2f       	mov	r17, r22
	COM_putchar(t);
    1278:	e7 de       	rcall	.-562    	; 0x1048 <COM_putchar>
	COM_putchar('[');
    127a:	8b e5       	ldi	r24, 0x5B	; 91
    127c:	e5 de       	rcall	.-566    	; 0x1048 <COM_putchar>
	print_hexXX(i);
    127e:	81 2f       	mov	r24, r17
    1280:	a3 df       	rcall	.-186    	; 0x11c8 <print_hexXX>
	COM_putchar(']');
    1282:	8d e5       	ldi	r24, 0x5D	; 93
    1284:	e1 de       	rcall	.-574    	; 0x1048 <COM_putchar>
	COM_putchar('=');
    1286:	8d e3       	ldi	r24, 0x3D	; 61
    1288:	df de       	rcall	.-578    	; 0x1048 <COM_putchar>
}
    128a:	1f 91       	pop	r17
    128c:	08 95       	ret

0000128e <COM_flush>:
 *  \brief flush output buffer
 *
 *  \note
 ******************************************************************************/
void COM_flush (void) {
	if (tx_buff_in!=tx_buff_out) {
    128e:	90 91 4f 01 	lds	r25, 0x014F
    1292:	80 91 50 01 	lds	r24, 0x0150
    1296:	98 17       	cp	r25, r24
    1298:	11 f0       	breq	.+4      	; 0x129e <COM_flush+0x10>
#if (defined COM_RS232) || (defined COM_RS485)
		RS_startSend();
    129a:	0c 94 67 1b 	jmp	0x36ce	; 0x36ce <RS_startSend>
    129e:	08 95       	ret

000012a0 <COM_print_debug>:
 *******************************************************************************
 *  \brief Print debug line
 *
 *  \note
 ******************************************************************************/
void COM_print_debug(uint8_t type) {
    12a0:	1f 93       	push	r17
    12a2:	18 2f       	mov	r17, r24
	print_s_p(PSTR("D: "));
    12a4:	80 ea       	ldi	r24, 0xA0	; 160
    12a6:	91 e0       	ldi	r25, 0x01	; 1
    12a8:	ab df       	rcall	.-170    	; 0x1200 <print_s_p>
	print_hexXX(RTC_GetDayOfWeek()+0xd0);
    12aa:	80 91 16 01 	lds	r24, 0x0116
    12ae:	80 53       	subi	r24, 0x30	; 48
    12b0:	8b df       	rcall	.-234    	; 0x11c8 <print_hexXX>
	COM_putchar(' ');
    12b2:	80 e2       	ldi	r24, 0x20	; 32
    12b4:	c9 de       	rcall	.-622    	; 0x1048 <COM_putchar>
	print_decXX(RTC_GetDay());
    12b6:	80 91 12 01 	lds	r24, 0x0112
    12ba:	31 df       	rcall	.-414    	; 0x111e <print_decXX>
	COM_putchar('.');
    12bc:	8e e2       	ldi	r24, 0x2E	; 46
    12be:	c4 de       	rcall	.-632    	; 0x1048 <COM_putchar>
	print_decXX(RTC_GetMonth());
    12c0:	80 91 11 01 	lds	r24, 0x0111
    12c4:	2c df       	rcall	.-424    	; 0x111e <print_decXX>
	COM_putchar('.');
    12c6:	8e e2       	ldi	r24, 0x2E	; 46
    12c8:	bf de       	rcall	.-642    	; 0x1048 <COM_putchar>
	print_decXX(RTC_GetYearYY());
    12ca:	80 91 10 01 	lds	r24, 0x0110
    12ce:	27 df       	rcall	.-434    	; 0x111e <print_decXX>
	COM_putchar(' ');
    12d0:	80 e2       	ldi	r24, 0x20	; 32
    12d2:	ba de       	rcall	.-652    	; 0x1048 <COM_putchar>
	print_decXX(RTC_GetHour());
    12d4:	80 91 13 01 	lds	r24, 0x0113
    12d8:	22 df       	rcall	.-444    	; 0x111e <print_decXX>
	COM_putchar(':');
    12da:	8a e3       	ldi	r24, 0x3A	; 58
    12dc:	b5 de       	rcall	.-662    	; 0x1048 <COM_putchar>
	print_decXX(RTC_GetMinute());
    12de:	80 91 14 01 	lds	r24, 0x0114
    12e2:	1d df       	rcall	.-454    	; 0x111e <print_decXX>
	COM_putchar(':');
    12e4:	8a e3       	ldi	r24, 0x3A	; 58
    12e6:	b0 de       	rcall	.-672    	; 0x1048 <COM_putchar>
	print_decXX(RTC_GetSecond());
    12e8:	80 91 15 01 	lds	r24, 0x0115
    12ec:	18 df       	rcall	.-464    	; 0x111e <print_decXX>
	COM_putchar(' ');
    12ee:	80 e2       	ldi	r24, 0x20	; 32
    12f0:	ab de       	rcall	.-682    	; 0x1048 <COM_putchar>
	switch(CTL_mode_auto){
    12f2:	80 91 0b 01 	lds	r24, 0x010B
    12f6:	82 30       	cpi	r24, 0x02	; 2
    12f8:	81 f0       	breq	.+32     	; 0x131a <COM_print_debug+0x7a>
    12fa:	83 30       	cpi	r24, 0x03	; 3
    12fc:	28 f4       	brcc	.+10     	; 0x1308 <COM_print_debug+0x68>
    12fe:	88 23       	and	r24, r24
    1300:	41 f0       	breq	.+16     	; 0x1312 <COM_print_debug+0x72>
    1302:	81 30       	cpi	r24, 0x01	; 1
    1304:	b1 f4       	brne	.+44     	; 0x1332 <COM_print_debug+0x92>
    1306:	07 c0       	rjmp	.+14     	; 0x1316 <COM_print_debug+0x76>
    1308:	83 30       	cpi	r24, 0x03	; 3
    130a:	59 f0       	breq	.+22     	; 0x1322 <COM_print_debug+0x82>
    130c:	84 30       	cpi	r24, 0x04	; 4
    130e:	89 f4       	brne	.+34     	; 0x1332 <COM_print_debug+0x92>
    1310:	0c c0       	rjmp	.+24     	; 0x132a <COM_print_debug+0x8a>
		case manual_target:
			COM_putchar('M');
    1312:	8d e4       	ldi	r24, 0x4D	; 77
    1314:	03 c0       	rjmp	.+6      	; 0x131c <COM_print_debug+0x7c>
			COM_putchar('T');
			break;
		case manual_timers:
			COM_putchar('M');
    1316:	8d e4       	ldi	r24, 0x4D	; 77
    1318:	09 c0       	rjmp	.+18     	; 0x132c <COM_print_debug+0x8c>
			COM_putchar('P');
			break;
		case auto_target:
			COM_putchar('A');
    131a:	81 e4       	ldi	r24, 0x41	; 65
    131c:	95 de       	rcall	.-726    	; 0x1048 <COM_putchar>
			COM_putchar('T');
    131e:	84 e5       	ldi	r24, 0x54	; 84
    1320:	0b c0       	rjmp	.+22     	; 0x1338 <COM_print_debug+0x98>
			break;
		case auto_valve:
			COM_putchar('A');
    1322:	81 e4       	ldi	r24, 0x41	; 65
    1324:	91 de       	rcall	.-734    	; 0x1048 <COM_putchar>
			COM_putchar('V');
    1326:	86 e5       	ldi	r24, 0x56	; 86
    1328:	07 c0       	rjmp	.+14     	; 0x1338 <COM_print_debug+0x98>
			break;
		case auto_timers:
			COM_putchar('A');
    132a:	81 e4       	ldi	r24, 0x41	; 65
    132c:	8d de       	rcall	.-742    	; 0x1048 <COM_putchar>
			COM_putchar('P');
    132e:	80 e5       	ldi	r24, 0x50	; 80
    1330:	03 c0       	rjmp	.+6      	; 0x1338 <COM_print_debug+0x98>
			break;
		default:
			COM_putchar('-');
    1332:	8d e2       	ldi	r24, 0x2D	; 45
    1334:	89 de       	rcall	.-750    	; 0x1048 <COM_putchar>
			COM_putchar('-');
    1336:	8d e2       	ldi	r24, 0x2D	; 45
    1338:	87 de       	rcall	.-754    	; 0x1048 <COM_putchar>
	}
	print_s_p(PSTR(" V: "));
    133a:	8b e9       	ldi	r24, 0x9B	; 155
    133c:	91 e0       	ldi	r25, 0x01	; 1
    133e:	60 df       	rcall	.-320    	; 0x1200 <print_s_p>
	print_decXX(valve_wanted);
    1340:	80 91 84 02 	lds	r24, 0x0284
    1344:	ec de       	rcall	.-552    	; 0x111e <print_decXX>
	print_s_p(PSTR(" I: "));
    1346:	86 e9       	ldi	r24, 0x96	; 150
    1348:	91 e0       	ldi	r25, 0x01	; 1
    134a:	5a df       	rcall	.-332    	; 0x1200 <print_s_p>
	print_decXXXX(temp_average);
    134c:	80 91 26 02 	lds	r24, 0x0226
    1350:	90 91 27 02 	lds	r25, 0x0227
    1354:	27 df       	rcall	.-434    	; 0x11a4 <print_decXXXX>
	print_s_p(PSTR(" S: "));
    1356:	81 e9       	ldi	r24, 0x91	; 145
    1358:	91 e0       	ldi	r25, 0x01	; 1
    135a:	52 df       	rcall	.-348    	; 0x1200 <print_s_p>
	if (CTL_temp_wanted_last>TEMP_MAX+1) {
    135c:	90 91 06 01 	lds	r25, 0x0106
    1360:	9e 33       	cpi	r25, 0x3E	; 62
    1362:	20 f0       	brcs	.+8      	; 0x136c <COM_print_debug+0xcc>
		print_s_p(PSTR("BOOT"));
    1364:	8c e8       	ldi	r24, 0x8C	; 140
    1366:	91 e0       	ldi	r25, 0x01	; 1
    1368:	4b df       	rcall	.-362    	; 0x1200 <print_s_p>
    136a:	05 c0       	rjmp	.+10     	; 0x1376 <COM_print_debug+0xd6>
	} else {
		print_decXXXX(calc_temp(CTL_temp_wanted_last));
    136c:	82 e3       	ldi	r24, 0x32	; 50
    136e:	98 9f       	mul	r25, r24
    1370:	c0 01       	movw	r24, r0
    1372:	11 24       	eor	r1, r1
    1374:	17 df       	rcall	.-466    	; 0x11a4 <print_decXXXX>
	}
	print_s_p(PSTR(" B: "));
    1376:	87 e8       	ldi	r24, 0x87	; 135
    1378:	91 e0       	ldi	r25, 0x01	; 1
    137a:	42 df       	rcall	.-380    	; 0x1200 <print_s_p>
	print_decXXXX(bat_average);
    137c:	80 91 24 02 	lds	r24, 0x0224
    1380:	90 91 25 02 	lds	r25, 0x0225
    1384:	0f df       	rcall	.-482    	; 0x11a4 <print_decXXXX>
#if DEBUG_PRINT_I_SUM
	print_s_p(PSTR(" Is: "));
    1386:	81 e8       	ldi	r24, 0x81	; 129
    1388:	91 e0       	ldi	r25, 0x01	; 1
    138a:	3a df       	rcall	.-396    	; 0x1200 <print_s_p>
	print_hexXXXX(sumError>>16);
    138c:	80 91 38 01 	lds	r24, 0x0138
    1390:	90 91 39 01 	lds	r25, 0x0139
    1394:	a0 91 3a 01 	lds	r26, 0x013A
    1398:	b0 91 3b 01 	lds	r27, 0x013B
    139c:	cd 01       	movw	r24, r26
    139e:	bb 27       	eor	r27, r27
    13a0:	97 fd       	sbrc	r25, 7
    13a2:	b0 95       	com	r27
    13a4:	ab 2f       	mov	r26, r27
    13a6:	24 df       	rcall	.-440    	; 0x11f0 <print_hexXXXX>
	print_hexXXXX(sumError);
    13a8:	80 91 38 01 	lds	r24, 0x0138
    13ac:	90 91 39 01 	lds	r25, 0x0139
    13b0:	1f df       	rcall	.-450    	; 0x11f0 <print_hexXXXX>
	print_s_p(PSTR(" Ib: ")); //jr
    13b2:	8b e7       	ldi	r24, 0x7B	; 123
    13b4:	91 e0       	ldi	r25, 0x01	; 1
    13b6:	24 df       	rcall	.-440    	; 0x1200 <print_s_p>
	print_hexXX(CTL_integratorBlock);
    13b8:	80 91 85 02 	lds	r24, 0x0285
    13bc:	05 df       	rcall	.-502    	; 0x11c8 <print_hexXX>
	print_s_p(PSTR(" Ic: ")); //jr
    13be:	85 e7       	ldi	r24, 0x75	; 117
    13c0:	91 e0       	ldi	r25, 0x01	; 1
    13c2:	1e df       	rcall	.-452    	; 0x1200 <print_s_p>
	print_hexXX(CTL_interatorCredit);
    13c4:	80 91 82 02 	lds	r24, 0x0282
    13c8:	ff de       	rcall	.-514    	; 0x11c8 <print_hexXX>
	print_s_p(PSTR(" Ie: ")); //jr
    13ca:	8f e6       	ldi	r24, 0x6F	; 111
    13cc:	91 e0       	ldi	r25, 0x01	; 1
    13ce:	18 df       	rcall	.-464    	; 0x1200 <print_s_p>
	print_hexXX(CTL_creditExpiration);
    13d0:	80 91 83 02 	lds	r24, 0x0283
    13d4:	f9 de       	rcall	.-526    	; 0x11c8 <print_hexXX>
#endif
	if (CTL_error!=0) {
    13d6:	80 91 37 01 	lds	r24, 0x0137
    13da:	88 23       	and	r24, r24
    13dc:	31 f0       	breq	.+12     	; 0x13ea <COM_print_debug+0x14a>
		print_s_p(PSTR(" E:"));
    13de:	8b e6       	ldi	r24, 0x6B	; 107
    13e0:	91 e0       	ldi	r25, 0x01	; 1
    13e2:	0e df       	rcall	.-484    	; 0x1200 <print_s_p>
		print_hexXX(CTL_error);
    13e4:	80 91 37 01 	lds	r24, 0x0137
    13e8:	ef de       	rcall	.-546    	; 0x11c8 <print_hexXX>
	}                   
	if (type>0) {
    13ea:	11 23       	and	r17, r17
    13ec:	19 f0       	breq	.+6      	; 0x13f4 <COM_print_debug+0x154>
		print_s_p(PSTR(" X"));
    13ee:	88 e6       	ldi	r24, 0x68	; 104
    13f0:	91 e0       	ldi	r25, 0x01	; 1
    13f2:	06 df       	rcall	.-500    	; 0x1200 <print_s_p>
	}
	if (mode_window()) {
    13f4:	80 91 36 01 	lds	r24, 0x0136
    13f8:	88 23       	and	r24, r24
    13fa:	19 f0       	breq	.+6      	; 0x1402 <COM_print_debug+0x162>
		print_s_p(PSTR(" W"));
    13fc:	85 e6       	ldi	r24, 0x65	; 101
    13fe:	91 e0       	ldi	r25, 0x01	; 1
    1400:	ff de       	rcall	.-514    	; 0x1200 <print_s_p>
	}
	if (menu_locked) {
    1402:	80 91 73 02 	lds	r24, 0x0273
    1406:	88 23       	and	r24, r24
    1408:	19 f0       	breq	.+6      	; 0x1410 <COM_print_debug+0x170>
		print_s_p(PSTR(" L"));
    140a:	82 e6       	ldi	r24, 0x62	; 98
    140c:	91 e0       	ldi	r25, 0x01	; 1
    140e:	f8 de       	rcall	.-528    	; 0x1200 <print_s_p>
	}
	COM_putchar('\n');
    1410:	8a e0       	ldi	r24, 0x0A	; 10
    1412:	1a de       	rcall	.-972    	; 0x1048 <COM_putchar>
	COM_flush();
    1414:	3c df       	rcall	.-392    	; 0x128e <COM_flush>
	wireless_putchar(valve_wanted); // valve pos
	wireless_async=false;
	rfm_start_tx();
#endif

}
    1416:	1f 91       	pop	r17
    1418:	08 95       	ret

0000141a <COM_command_parse>:
 *  \note   Axx\n - set wanted temperature [unit 0.5C]
 *  \note   Mxx\n - set mode and close window (00=manu 01=auto fd=nochange/close window only)
 * 	\note	Lxx\n - Lock keys, and return lock status (00=unlock, 01=lock, 02=status only)
 *	
 ******************************************************************************/
void COM_command_parse (void) {
    141a:	0f 93       	push	r16
    141c:	1f 93       	push	r17
						case 'T':
							{
								COM_putchar(sub);
								COM_putchar('1');	
								COM_putchar(':');	
								print_decXXXX(calc_temp(CTL_temp_wanted_last));
    141e:	02 e3       	ldi	r16, 0x32	; 50
    1420:	85 c2       	rjmp	.+1290   	; 0x192c <COM_command_parse+0x512>
 *	
 ******************************************************************************/
void COM_command_parse (void) {
	char c;
	while (COM_requests) {
		switch(c=COM_getchar()) {
    1422:	61 de       	rcall	.-830    	; 0x10e6 <COM_getchar>
    1424:	18 2f       	mov	r17, r24
    1426:	90 e0       	ldi	r25, 0x00	; 0
    1428:	fc 01       	movw	r30, r24
    142a:	e2 54       	subi	r30, 0x42	; 66
    142c:	f0 40       	sbci	r31, 0x00	; 0
    142e:	e6 31       	cpi	r30, 0x16	; 22
    1430:	f1 05       	cpc	r31, r1
    1432:	08 f0       	brcs	.+2      	; 0x1436 <COM_command_parse+0x1c>
    1434:	7a c2       	rjmp	.+1268   	; 0x192a <COM_command_parse+0x510>
    1436:	e2 5d       	subi	r30, 0xD2	; 210
    1438:	ff 4f       	sbci	r31, 0xFF	; 255
    143a:	0c 94 b8 1c 	jmp	0x3970	; 0x3970 <__tablejump2__>
				 break;
			 */

#if ENABLE_LOCAL_COMMANDS
			case 'D':
				if (COM_getchar()=='\n') COM_print_debug(1);
    143e:	53 de       	rcall	.-858    	; 0x10e6 <COM_getchar>
    1440:	8a 30       	cpi	r24, 0x0A	; 10
    1442:	09 f0       	breq	.+2      	; 0x1446 <COM_command_parse+0x2c>
    1444:	72 c2       	rjmp	.+1252   	; 0x192a <COM_command_parse+0x510>
    1446:	81 e0       	ldi	r24, 0x01	; 1
    1448:	2b df       	rcall	.-426    	; 0x12a0 <COM_print_debug>
    144a:	6f c2       	rjmp	.+1246   	; 0x192a <COM_command_parse+0x510>
				c='\0';
				break;
			case 'V':
				//Watch Variable
				{
					if (COM_hex_parse(1*2)!='\0') { break; }
    144c:	82 e0       	ldi	r24, 0x02	; 2
    144e:	e7 de       	rcall	.-562    	; 0x121e <COM_hex_parse>
    1450:	88 23       	and	r24, r24
    1452:	09 f0       	breq	.+2      	; 0x1456 <COM_command_parse+0x3c>
    1454:	68 c2       	rjmp	.+1232   	; 0x1926 <COM_command_parse+0x50c>
					print_idx(c,com_hex[0]);
    1456:	86 e5       	ldi	r24, 0x56	; 86
    1458:	60 91 12 02 	lds	r22, 0x0212
    145c:	0b df       	rcall	.-490    	; 0x1274 <print_idx>
					print_hexXXXX(watch(com_hex[0]));
    145e:	80 91 12 02 	lds	r24, 0x0212
    1462:	da dd       	rcall	.-1100   	; 0x1018 <watch>
    1464:	45 c0       	rjmp	.+138    	; 0x14f0 <COM_command_parse+0xd6>
				}
				break;
				}*/
			case 'R':
			case 'W':
				if (c=='R') {
    1466:	12 35       	cpi	r17, 0x52	; 82
    1468:	31 f4       	brne	.+12     	; 0x1476 <COM_command_parse+0x5c>
					if (COM_hex_parse(1*2)!='\0') { break; }
    146a:	82 e0       	ldi	r24, 0x02	; 2
    146c:	d8 de       	rcall	.-592    	; 0x121e <COM_hex_parse>
    146e:	88 23       	and	r24, r24
    1470:	09 f0       	breq	.+2      	; 0x1474 <COM_command_parse+0x5a>
    1472:	59 c2       	rjmp	.+1202   	; 0x1926 <COM_command_parse+0x50c>
    1474:	2d c0       	rjmp	.+90     	; 0x14d0 <COM_command_parse+0xb6>
				} else {
					if (COM_hex_parse(3*2)!='\0') { break; }
    1476:	86 e0       	ldi	r24, 0x06	; 6
    1478:	d2 de       	rcall	.-604    	; 0x121e <COM_hex_parse>
    147a:	88 23       	and	r24, r24
    147c:	09 f0       	breq	.+2      	; 0x1480 <COM_command_parse+0x66>
    147e:	53 c2       	rjmp	.+1190   	; 0x1926 <COM_command_parse+0x50c>
					RTC_DowTimerSet(
    1480:	60 91 12 02 	lds	r22, 0x0212
    1484:	20 91 13 02 	lds	r18, 0x0213
    1488:	42 2f       	mov	r20, r18
    148a:	50 e0       	ldi	r21, 0x00	; 0
    148c:	4f 70       	andi	r20, 0x0F	; 15
    148e:	50 70       	andi	r21, 0x00	; 0
    1490:	54 2f       	mov	r21, r20
    1492:	44 27       	eor	r20, r20
    1494:	80 91 14 02 	lds	r24, 0x0214
    1498:	48 0f       	add	r20, r24
    149a:	51 1d       	adc	r21, r1
    149c:	22 95       	swap	r18
    149e:	2f 70       	andi	r18, 0x0F	; 15
    14a0:	86 2f       	mov	r24, r22
    14a2:	82 95       	swap	r24
    14a4:	8f 70       	andi	r24, 0x0F	; 15
    14a6:	6f 70       	andi	r22, 0x0F	; 15
    14a8:	ca d5       	rcall	.+2964   	; 0x203e <RTC_DowTimerSet>
							com_hex[0]>>4, 
							com_hex[0]&0xf, 
							(((uint16_t) (com_hex[1])&0xf)<<8)+(uint16_t)(com_hex[2]),
							(com_hex[1])>>4);
					CTL_update_temp_auto();
    14aa:	10 92 31 01 	sts	0x0131, r1
					menu_update_hourbar((config.timer_mode==1)?RTC_GetDayOfWeek():0);
    14ae:	80 91 ac 02 	lds	r24, 0x02AC
    14b2:	81 30       	cpi	r24, 0x01	; 1
    14b4:	11 f0       	breq	.+4      	; 0x14ba <COM_command_parse+0xa0>
    14b6:	80 e0       	ldi	r24, 0x00	; 0
    14b8:	02 c0       	rjmp	.+4      	; 0x14be <COM_command_parse+0xa4>
    14ba:	80 91 16 01 	lds	r24, 0x0116
extern bool menu_locked; 

extern uint32_t hourbar_buff;

static inline void menu_update_hourbar(uint8_t dow) {
    hourbar_buff = RTC_DowTimerGetHourBar(dow);
    14be:	3e d4       	rcall	.+2172   	; 0x1d3c <RTC_DowTimerGetHourBar>
    14c0:	60 93 b3 02 	sts	0x02B3, r22
    14c4:	70 93 b4 02 	sts	0x02B4, r23
    14c8:	80 93 b5 02 	sts	0x02B5, r24
    14cc:	90 93 b6 02 	sts	0x02B6, r25
				}
				print_idx(c,com_hex[0]);
    14d0:	81 2f       	mov	r24, r17
    14d2:	60 91 12 02 	lds	r22, 0x0212
    14d6:	ce de       	rcall	.-612    	; 0x1274 <print_idx>
				print_hexXXXX(eeprom_timers_read_raw(
    14d8:	90 91 12 02 	lds	r25, 0x0212
    14dc:	89 2f       	mov	r24, r25
    14de:	82 95       	swap	r24
    14e0:	8f 70       	andi	r24, 0x0F	; 15
    14e2:	88 0f       	add	r24, r24
    14e4:	88 0f       	add	r24, r24
    14e6:	88 0f       	add	r24, r24
    14e8:	9f 70       	andi	r25, 0x0F	; 15
    14ea:	89 0f       	add	r24, r25
    14ec:	0e 94 87 14 	call	0x290e	; 0x290e <eeprom_timers_read_raw>
    14f0:	7f de       	rcall	.-770    	; 0x11f0 <print_hexXXXX>
    14f2:	19 c2       	rjmp	.+1074   	; 0x1926 <COM_command_parse+0x50c>



			case 'B':  //RESET
				{
					if (COM_hex_parse(2*2)!='\0') { break; }
    14f4:	84 e0       	ldi	r24, 0x04	; 4
    14f6:	93 de       	rcall	.-730    	; 0x121e <COM_hex_parse>
    14f8:	88 23       	and	r24, r24
    14fa:	09 f0       	breq	.+2      	; 0x14fe <COM_command_parse+0xe4>
    14fc:	14 c2       	rjmp	.+1064   	; 0x1926 <COM_command_parse+0x50c>
					if ((com_hex[0]==0x13) && (com_hex[1]==0x24)) {
    14fe:	80 91 12 02 	lds	r24, 0x0212
    1502:	83 31       	cpi	r24, 0x13	; 19
    1504:	09 f0       	breq	.+2      	; 0x1508 <COM_command_parse+0xee>
    1506:	0f c2       	rjmp	.+1054   	; 0x1926 <COM_command_parse+0x50c>
    1508:	80 91 13 02 	lds	r24, 0x0213
    150c:	84 32       	cpi	r24, 0x24	; 36
    150e:	09 f0       	breq	.+2      	; 0x1512 <COM_command_parse+0xf8>
    1510:	0a c2       	rjmp	.+1044   	; 0x1926 <COM_command_parse+0x50c>
						cli();
    1512:	f8 94       	cli
						wdt_enable(WDTO_15MS); //wd on,15ms
    1514:	28 e0       	ldi	r18, 0x08	; 8
    1516:	88 e1       	ldi	r24, 0x18	; 24
    1518:	90 e0       	ldi	r25, 0x00	; 0
    151a:	0f b6       	in	r0, 0x3f	; 63
    151c:	f8 94       	cli
    151e:	a8 95       	wdr
    1520:	80 93 60 00 	sts	0x0060, r24
    1524:	0f be       	out	0x3f, r0	; 63
    1526:	20 93 60 00 	sts	0x0060, r18
    152a:	ff cf       	rjmp	.-2      	; 0x152a <COM_command_parse+0x110>
					}
				}
				break;
			case 'S':
				{
					char sub = COM_getchar();
    152c:	dc dd       	rcall	.-1096   	; 0x10e6 <COM_getchar>
    152e:	18 2f       	mov	r17, r24
					COM_putchar(c);
    1530:	83 e5       	ldi	r24, 0x53	; 83
    1532:	8a dd       	rcall	.-1260   	; 0x1048 <COM_putchar>
					switch (sub) {
    1534:	81 2f       	mov	r24, r17
    1536:	90 e0       	ldi	r25, 0x00	; 0
    1538:	fc 01       	movw	r30, r24
    153a:	e1 54       	subi	r30, 0x41	; 65
    153c:	f0 40       	sbci	r31, 0x00	; 0
    153e:	e9 31       	cpi	r30, 0x19	; 25
    1540:	f1 05       	cpc	r31, r1
    1542:	08 f0       	brcs	.+2      	; 0x1546 <COM_command_parse+0x12c>
    1544:	de c1       	rjmp	.+956    	; 0x1902 <COM_command_parse+0x4e8>
    1546:	ec 5b       	subi	r30, 0xBC	; 188
    1548:	ff 4f       	sbci	r31, 0xFF	; 255
    154a:	0c 94 b8 1c 	jmp	0x3970	; 0x3970 <__tablejump2__>
						case 'M': 
							{
								COM_putchar(sub);
    154e:	8d e4       	ldi	r24, 0x4D	; 77
    1550:	7b dd       	rcall	.-1290   	; 0x1048 <COM_putchar>
								if (COM_hex_parse(1*2)!='\0'){ 
    1552:	82 e0       	ldi	r24, 0x02	; 2
    1554:	64 de       	rcall	.-824    	; 0x121e <COM_hex_parse>
    1556:	88 23       	and	r24, r24
    1558:	09 f0       	breq	.+2      	; 0x155c <COM_command_parse+0x142>
    155a:	d5 c1       	rjmp	.+938    	; 0x1906 <COM_command_parse+0x4ec>
									COM_putchar('0');
									break; 
								}
								if (com_hex[0]>=0 && com_hex[0]<=4){
    155c:	80 91 12 02 	lds	r24, 0x0212
    1560:	85 30       	cpi	r24, 0x05	; 5
    1562:	08 f0       	brcs	.+2      	; 0x1566 <COM_command_parse+0x14c>
    1564:	d0 c1       	rjmp	.+928    	; 0x1906 <COM_command_parse+0x4ec>
									CTL_change_mode(com_hex[0]);
    1566:	0d da       	rcall	.-3046   	; 0x982 <CTL_change_mode>
    1568:	10 c0       	rjmp	.+32     	; 0x158a <COM_command_parse+0x170>
								}	
								break;
							}
						case 'Y':
							{
								COM_putchar(sub);
    156a:	89 e5       	ldi	r24, 0x59	; 89
    156c:	6d dd       	rcall	.-1318   	; 0x1048 <COM_putchar>
								if (COM_hex_parse(3*2)!='\0') { 
    156e:	86 e0       	ldi	r24, 0x06	; 6
    1570:	56 de       	rcall	.-852    	; 0x121e <COM_hex_parse>
    1572:	88 23       	and	r24, r24
    1574:	09 f0       	breq	.+2      	; 0x1578 <COM_command_parse+0x15e>
    1576:	c7 c1       	rjmp	.+910    	; 0x1906 <COM_command_parse+0x4ec>
									COM_putchar('0');
									break; 
								}
								RTC_SetDate(com_hex[2],com_hex[1],com_hex[0]);
    1578:	80 91 12 02 	lds	r24, 0x0212
    157c:	0c d5       	rcall	.+2584   	; 0x1f96 <RTC_SetYear>
    157e:	80 91 13 02 	lds	r24, 0x0213
    1582:	0c d5       	rcall	.+2584   	; 0x1f9c <RTC_SetMonth>
    1584:	80 91 14 02 	lds	r24, 0x0214
    1588:	11 d5       	rcall	.+2594   	; 0x1fac <RTC_SetDay>
								COM_putchar('1');
    158a:	81 e3       	ldi	r24, 0x31	; 49
    158c:	bd c1       	rjmp	.+890    	; 0x1908 <COM_command_parse+0x4ee>
								break;

							}
						case 'H':
							{
								COM_putchar(sub);
    158e:	88 e4       	ldi	r24, 0x48	; 72
    1590:	5b dd       	rcall	.-1354   	; 0x1048 <COM_putchar>
								if (COM_hex_parse(3*2)!='\0') { 
    1592:	86 e0       	ldi	r24, 0x06	; 6
    1594:	44 de       	rcall	.-888    	; 0x121e <COM_hex_parse>
    1596:	88 23       	and	r24, r24
    1598:	09 f0       	breq	.+2      	; 0x159c <COM_command_parse+0x182>
    159a:	b5 c1       	rjmp	.+874    	; 0x1906 <COM_command_parse+0x4ec>
									COM_putchar('0');
									break; 
								}
								RTC_SetHour(com_hex[0]);
    159c:	80 91 12 02 	lds	r24, 0x0212
    15a0:	c0 d2       	rcall	.+1408   	; 0x1b22 <RTC_SetHour>
								RTC_SetMinute(com_hex[1]);
    15a2:	80 91 13 02 	lds	r24, 0x0213
    15a6:	c4 d2       	rcall	.+1416   	; 0x1b30 <RTC_SetMinute>
								RTC_SetSecond(com_hex[2]);
    15a8:	80 91 14 02 	lds	r24, 0x0214
    15ac:	c8 d2       	rcall	.+1424   	; 0x1b3e <RTC_SetSecond>
    15ae:	ed cf       	rjmp	.-38     	; 0x158a <COM_command_parse+0x170>
								COM_putchar('1');
								break;
							}
						case 'C':
							{
								COM_putchar(sub);
    15b0:	83 e4       	ldi	r24, 0x43	; 67
    15b2:	4a dd       	rcall	.-1388   	; 0x1048 <COM_putchar>
								if (COM_hex_parse(2*2)!='\0') { 
    15b4:	84 e0       	ldi	r24, 0x04	; 4
    15b6:	33 de       	rcall	.-922    	; 0x121e <COM_hex_parse>
    15b8:	88 23       	and	r24, r24
    15ba:	09 f0       	breq	.+2      	; 0x15be <COM_command_parse+0x1a4>
    15bc:	a4 c1       	rjmp	.+840    	; 0x1906 <COM_command_parse+0x4ec>
									COM_putchar('0');
									break; }
								if (com_hex[0]<CONFIG_RAW_SIZE) {
    15be:	90 91 12 02 	lds	r25, 0x0212
    15c2:	99 32       	cpi	r25, 0x29	; 41
    15c4:	08 f0       	brcs	.+2      	; 0x15c8 <COM_command_parse+0x1ae>
    15c6:	9f c1       	rjmp	.+830    	; 0x1906 <COM_command_parse+0x4ec>
									config_raw[com_hex[0]]=(uint8_t)(com_hex[1]);
    15c8:	e9 2f       	mov	r30, r25
    15ca:	f0 e0       	ldi	r31, 0x00	; 0
    15cc:	e6 57       	subi	r30, 0x76	; 118
    15ce:	fd 4f       	sbci	r31, 0xFD	; 253
    15d0:	80 91 13 02 	lds	r24, 0x0213
    15d4:	80 83       	st	Z, r24
									eeprom_config_save(com_hex[0]);
    15d6:	89 2f       	mov	r24, r25
    15d8:	0e 94 2b 14 	call	0x2856	; 0x2856 <eeprom_config_save>
    15dc:	d6 cf       	rjmp	.-84     	; 0x158a <COM_command_parse+0x170>
								}
								break;
							}
						case 'T':
							{
								COM_putchar(sub);
    15de:	84 e5       	ldi	r24, 0x54	; 84
    15e0:	33 dd       	rcall	.-1434   	; 0x1048 <COM_putchar>
								if (COM_hex_parse(1*2)!='\0') { 
    15e2:	82 e0       	ldi	r24, 0x02	; 2
    15e4:	1c de       	rcall	.-968    	; 0x121e <COM_hex_parse>
    15e6:	88 23       	and	r24, r24
    15e8:	09 f0       	breq	.+2      	; 0x15ec <COM_command_parse+0x1d2>
    15ea:	8d c1       	rjmp	.+794    	; 0x1906 <COM_command_parse+0x4ec>
									COM_putchar('0');
									break;
								}
								if (com_hex[0]<TEMP_MIN-1 || com_hex[0]>TEMP_MAX+1) { 
    15ec:	80 91 12 02 	lds	r24, 0x0212
    15f0:	89 50       	subi	r24, 0x09	; 9
    15f2:	85 33       	cpi	r24, 0x35	; 53
    15f4:	08 f0       	brcs	.+2      	; 0x15f8 <COM_command_parse+0x1de>
    15f6:	87 c1       	rjmp	.+782    	; 0x1906 <COM_command_parse+0x4ec>
									COM_putchar('0');
									break;
								}
								CTL_change_mode(auto_target);
    15f8:	82 e0       	ldi	r24, 0x02	; 2
    15fa:	c3 d9       	rcall	.-3194   	; 0x982 <CTL_change_mode>
								CTL_set_temp_auto(com_hex[0]);
    15fc:	8a e0       	ldi	r24, 0x0A	; 10
    15fe:	80 93 0c 01 	sts	0x010C, r24
    1602:	80 91 12 02 	lds	r24, 0x0212
    1606:	80 93 05 01 	sts	0x0105, r24
    160a:	bf cf       	rjmp	.-130    	; 0x158a <COM_command_parse+0x170>
								COM_putchar('1');
								break;
							}
						case 'V':
							{
								COM_putchar(sub);
    160c:	86 e5       	ldi	r24, 0x56	; 86
    160e:	1c dd       	rcall	.-1480   	; 0x1048 <COM_putchar>
								if (COM_hex_parse(1*2)!='\0') { 
    1610:	82 e0       	ldi	r24, 0x02	; 2
    1612:	05 de       	rcall	.-1014   	; 0x121e <COM_hex_parse>
    1614:	88 23       	and	r24, r24
    1616:	09 f0       	breq	.+2      	; 0x161a <COM_command_parse+0x200>
    1618:	76 c1       	rjmp	.+748    	; 0x1906 <COM_command_parse+0x4ec>
									COM_putchar('0');
									break;
								}
								CTL_change_mode(auto_valve);
    161a:	83 e0       	ldi	r24, 0x03	; 3
    161c:	b2 d9       	rcall	.-3228   	; 0x982 <CTL_change_mode>
								if (com_hex[0]>config.valve_max) {
    161e:	80 91 12 02 	lds	r24, 0x0212
    1622:	90 91 97 02 	lds	r25, 0x0297
    1626:	98 17       	cp	r25, r24
    1628:	20 f0       	brcs	.+8      	; 0x1632 <COM_command_parse+0x218>
									CTL_valve_wanted=config.valve_max;
								}
								else if (com_hex[0]<config.valve_min) {
    162a:	90 91 95 02 	lds	r25, 0x0295
    162e:	89 17       	cp	r24, r25
    1630:	18 f4       	brcc	.+6      	; 0x1638 <COM_command_parse+0x21e>
									CTL_valve_wanted=config.valve_min;
    1632:	90 93 32 01 	sts	0x0132, r25
    1636:	02 c0       	rjmp	.+4      	; 0x163c <COM_command_parse+0x222>
								}
								else{
									CTL_valve_wanted=com_hex[0];
    1638:	80 93 32 01 	sts	0x0132, r24
								}
								PID_force_update = 0;
    163c:	10 92 0c 01 	sts	0x010C, r1
    1640:	a4 cf       	rjmp	.-184    	; 0x158a <COM_command_parse+0x170>
								COM_putchar('1');
								break;
							}
						case 'P':
							{
								COM_putchar(sub);
    1642:	80 e5       	ldi	r24, 0x50	; 80
    1644:	01 dd       	rcall	.-1534   	; 0x1048 <COM_putchar>
								if (COM_hex_parse(2*2)!='\0') { 
    1646:	84 e0       	ldi	r24, 0x04	; 4
    1648:	ea dd       	rcall	.-1068   	; 0x121e <COM_hex_parse>
    164a:	88 23       	and	r24, r24
    164c:	09 f0       	breq	.+2      	; 0x1650 <COM_command_parse+0x236>
    164e:	5b c1       	rjmp	.+694    	; 0x1906 <COM_command_parse+0x4ec>
									COM_putchar('0');
									break; 
								}
								if (com_hex[0]>0 && com_hex[0]<5) {
    1650:	90 91 12 02 	lds	r25, 0x0212
    1654:	89 2f       	mov	r24, r25
    1656:	81 50       	subi	r24, 0x01	; 1
    1658:	84 30       	cpi	r24, 0x04	; 4
    165a:	08 f0       	brcs	.+2      	; 0x165e <COM_command_parse+0x244>
    165c:	54 c1       	rjmp	.+680    	; 0x1906 <COM_command_parse+0x4ec>
									config_raw[com_hex[0]]=(uint8_t)(com_hex[1]);
    165e:	e9 2f       	mov	r30, r25
    1660:	f0 e0       	ldi	r31, 0x00	; 0
    1662:	e6 57       	subi	r30, 0x76	; 118
    1664:	fd 4f       	sbci	r31, 0xFD	; 253
    1666:	80 91 13 02 	lds	r24, 0x0213
    166a:	80 83       	st	Z, r24
									eeprom_config_save(com_hex[0]);
    166c:	89 2f       	mov	r24, r25
    166e:	0e 94 2b 14 	call	0x2856	; 0x2856 <eeprom_config_save>
									CTL_update_temp_auto();
    1672:	10 92 31 01 	sts	0x0131, r1
    1676:	89 cf       	rjmp	.-238    	; 0x158a <COM_command_parse+0x170>
								}
								break;
							}
						case 'S':
							{
								COM_putchar(sub);
    1678:	83 e5       	ldi	r24, 0x53	; 83
    167a:	e6 dc       	rcall	.-1588   	; 0x1048 <COM_putchar>
								if (COM_hex_parse(3*2)!='\0') {
    167c:	86 e0       	ldi	r24, 0x06	; 6
    167e:	cf dd       	rcall	.-1122   	; 0x121e <COM_hex_parse>
    1680:	88 23       	and	r24, r24
    1682:	09 f0       	breq	.+2      	; 0x1686 <COM_command_parse+0x26c>
    1684:	40 c1       	rjmp	.+640    	; 0x1906 <COM_command_parse+0x4ec>
									COM_putchar('0');
									break; 
								}
								RTC_DowTimerSet(
    1686:	60 91 12 02 	lds	r22, 0x0212
    168a:	20 91 13 02 	lds	r18, 0x0213
    168e:	42 2f       	mov	r20, r18
    1690:	50 e0       	ldi	r21, 0x00	; 0
    1692:	4f 70       	andi	r20, 0x0F	; 15
    1694:	50 70       	andi	r21, 0x00	; 0
    1696:	54 2f       	mov	r21, r20
    1698:	44 27       	eor	r20, r20
    169a:	80 91 14 02 	lds	r24, 0x0214
    169e:	48 0f       	add	r20, r24
    16a0:	51 1d       	adc	r21, r1
    16a2:	22 95       	swap	r18
    16a4:	2f 70       	andi	r18, 0x0F	; 15
    16a6:	86 2f       	mov	r24, r22
    16a8:	82 95       	swap	r24
    16aa:	8f 70       	andi	r24, 0x0F	; 15
    16ac:	6f 70       	andi	r22, 0x0F	; 15
    16ae:	c7 d4       	rcall	.+2446   	; 0x203e <RTC_DowTimerSet>
										com_hex[0]>>4, 
										com_hex[0]&0xf, 
										(((uint16_t) (com_hex[1])&0xf)<<8)+(uint16_t)(com_hex[2]),
										(com_hex[1])>>4);
								CTL_update_temp_auto();
    16b0:	10 92 31 01 	sts	0x0131, r1
								menu_update_hourbar((config.timer_mode==1)?RTC_GetDayOfWeek():0);
    16b4:	80 91 ac 02 	lds	r24, 0x02AC
    16b8:	81 30       	cpi	r24, 0x01	; 1
    16ba:	11 f0       	breq	.+4      	; 0x16c0 <COM_command_parse+0x2a6>
    16bc:	80 e0       	ldi	r24, 0x00	; 0
    16be:	02 c0       	rjmp	.+4      	; 0x16c4 <COM_command_parse+0x2aa>
    16c0:	80 91 16 01 	lds	r24, 0x0116
    16c4:	3b d3       	rcall	.+1654   	; 0x1d3c <RTC_DowTimerGetHourBar>
    16c6:	60 93 b3 02 	sts	0x02B3, r22
    16ca:	70 93 b4 02 	sts	0x02B4, r23
    16ce:	80 93 b5 02 	sts	0x02B5, r24
    16d2:	90 93 b6 02 	sts	0x02B6, r25
								COM_putchar('1');
    16d6:	81 e3       	ldi	r24, 0x31	; 49
    16d8:	b7 dc       	rcall	.-1682   	; 0x1048 <COM_putchar>
								COM_putchar(':');
    16da:	8a e3       	ldi	r24, 0x3A	; 58
    16dc:	b5 dc       	rcall	.-1686   	; 0x1048 <COM_putchar>
								print_digit(com_hex[0]>>4);
    16de:	80 91 12 02 	lds	r24, 0x0212
    16e2:	82 95       	swap	r24
    16e4:	8f 70       	andi	r24, 0x0F	; 15
    16e6:	38 dd       	rcall	.-1424   	; 0x1158 <print_digit>
    16e8:	1e c1       	rjmp	.+572    	; 0x1926 <COM_command_parse+0x50c>
								break;
							}
						case 'D':
							{
								COM_putchar(sub);
    16ea:	84 e4       	ldi	r24, 0x44	; 68
    16ec:	ad dc       	rcall	.-1702   	; 0x1048 <COM_putchar>
								if (COM_hex_parse(1*2)!='\0') { 
    16ee:	82 e0       	ldi	r24, 0x02	; 2
    16f0:	96 dd       	rcall	.-1236   	; 0x121e <COM_hex_parse>
    16f2:	88 23       	and	r24, r24
    16f4:	09 f0       	breq	.+2      	; 0x16f8 <COM_command_parse+0x2de>
    16f6:	07 c1       	rjmp	.+526    	; 0x1906 <COM_command_parse+0x4ec>
									COM_putchar('0');
									break;
								}
								if (com_hex[0] == 0){
    16f8:	90 91 12 02 	lds	r25, 0x0212
    16fc:	99 23       	and	r25, r25
    16fe:	09 f4       	brne	.+2      	; 0x1702 <COM_command_parse+0x2e8>
    1700:	02 c1       	rjmp	.+516    	; 0x1906 <COM_command_parse+0x4ec>
									COM_putchar('0');
									break;
								}
								CTL_temp_threshold= ((int16_t) com_hex[0])*10;
    1702:	8a e0       	ldi	r24, 0x0A	; 10
    1704:	98 9f       	mul	r25, r24
    1706:	c0 01       	movw	r24, r0
    1708:	11 24       	eor	r1, r1
    170a:	90 93 08 01 	sts	0x0108, r25
    170e:	80 93 07 01 	sts	0x0107, r24
    1712:	3b cf       	rjmp	.-394    	; 0x158a <COM_command_parse+0x170>
								COM_putchar('1');
								break;
							}	
						case 'A':
							{
								COM_putchar(sub);
    1714:	81 e4       	ldi	r24, 0x41	; 65
    1716:	98 dc       	rcall	.-1744   	; 0x1048 <COM_putchar>
								if (COM_hex_parse(1*2)!='\0') { 
    1718:	82 e0       	ldi	r24, 0x02	; 2
    171a:	81 dd       	rcall	.-1278   	; 0x121e <COM_hex_parse>
    171c:	88 23       	and	r24, r24
    171e:	09 f0       	breq	.+2      	; 0x1722 <COM_command_parse+0x308>
    1720:	f2 c0       	rjmp	.+484    	; 0x1906 <COM_command_parse+0x4ec>
									COM_putchar('0');
									break;
								}
								if (com_hex[0] == 0){
    1722:	80 91 12 02 	lds	r24, 0x0212
    1726:	88 23       	and	r24, r24
    1728:	09 f4       	brne	.+2      	; 0x172c <COM_command_parse+0x312>
    172a:	ed c0       	rjmp	.+474    	; 0x1906 <COM_command_parse+0x4ec>
									COM_putchar('0');
									break;
								}
								CTL_bat_threshold= ((int16_t) com_hex[0]);
    172c:	80 93 09 01 	sts	0x0109, r24
    1730:	10 92 0a 01 	sts	0x010A, r1
    1734:	2a cf       	rjmp	.-428    	; 0x158a <COM_command_parse+0x170>

				}

			case 'G':
				{
					char sub = COM_getchar();
    1736:	d7 dc       	rcall	.-1618   	; 0x10e6 <COM_getchar>
    1738:	18 2f       	mov	r17, r24

					COM_putchar(c);
    173a:	87 e4       	ldi	r24, 0x47	; 71
    173c:	85 dc       	rcall	.-1782   	; 0x1048 <COM_putchar>
					switch (sub) {
    173e:	81 2f       	mov	r24, r17
    1740:	90 e0       	ldi	r25, 0x00	; 0
    1742:	fc 01       	movw	r30, r24
    1744:	e1 54       	subi	r30, 0x41	; 65
    1746:	f0 40       	sbci	r31, 0x00	; 0
    1748:	e9 31       	cpi	r30, 0x19	; 25
    174a:	f1 05       	cpc	r31, r1
    174c:	08 f0       	brcs	.+2      	; 0x1750 <COM_command_parse+0x336>
    174e:	d9 c0       	rjmp	.+434    	; 0x1902 <COM_command_parse+0x4e8>
    1750:	e3 5a       	subi	r30, 0xA3	; 163
    1752:	ff 4f       	sbci	r31, 0xFF	; 255
    1754:	0c 94 b8 1c 	jmp	0x3970	; 0x3970 <__tablejump2__>
						case 'M':
							{
								COM_putchar(sub);
    1758:	8d e4       	ldi	r24, 0x4D	; 77
    175a:	76 dc       	rcall	.-1812   	; 0x1048 <COM_putchar>
								COM_putchar('1');
    175c:	81 e3       	ldi	r24, 0x31	; 49
    175e:	74 dc       	rcall	.-1816   	; 0x1048 <COM_putchar>
								COM_putchar(':');
    1760:	8a e3       	ldi	r24, 0x3A	; 58
    1762:	72 dc       	rcall	.-1820   	; 0x1048 <COM_putchar>
								print_decXX(CTL_mode_auto);
    1764:	80 91 0b 01 	lds	r24, 0x010B
    1768:	5f c0       	rjmp	.+190    	; 0x1828 <COM_command_parse+0x40e>
								break;
							}
						case 'Y':
							{
								COM_putchar(sub);
    176a:	89 e5       	ldi	r24, 0x59	; 89
    176c:	6d dc       	rcall	.-1830   	; 0x1048 <COM_putchar>
								COM_putchar('1');
    176e:	81 e3       	ldi	r24, 0x31	; 49
    1770:	6b dc       	rcall	.-1834   	; 0x1048 <COM_putchar>
								COM_putchar(':');
    1772:	8a e3       	ldi	r24, 0x3A	; 58
    1774:	69 dc       	rcall	.-1838   	; 0x1048 <COM_putchar>
								print_decXX(RTC_GetDay());
    1776:	80 91 12 01 	lds	r24, 0x0112
    177a:	d1 dc       	rcall	.-1630   	; 0x111e <print_decXX>
								COM_putchar('.');
    177c:	8e e2       	ldi	r24, 0x2E	; 46
    177e:	64 dc       	rcall	.-1848   	; 0x1048 <COM_putchar>
								print_decXX(RTC_GetMonth());
    1780:	80 91 11 01 	lds	r24, 0x0111
    1784:	cc dc       	rcall	.-1640   	; 0x111e <print_decXX>
								COM_putchar('.');
    1786:	8e e2       	ldi	r24, 0x2E	; 46
    1788:	5f dc       	rcall	.-1858   	; 0x1048 <COM_putchar>
								print_decXX(RTC_GetYearYY());
    178a:	80 91 10 01 	lds	r24, 0x0110
    178e:	4c c0       	rjmp	.+152    	; 0x1828 <COM_command_parse+0x40e>
								break;
							}
						case 'H':
							{
								COM_putchar(sub);
    1790:	88 e4       	ldi	r24, 0x48	; 72
    1792:	5a dc       	rcall	.-1868   	; 0x1048 <COM_putchar>
								COM_putchar('1');
    1794:	81 e3       	ldi	r24, 0x31	; 49
    1796:	58 dc       	rcall	.-1872   	; 0x1048 <COM_putchar>
								COM_putchar(':');
    1798:	8a e3       	ldi	r24, 0x3A	; 58
    179a:	56 dc       	rcall	.-1876   	; 0x1048 <COM_putchar>
								print_decXX(RTC_GetHour());
    179c:	80 91 13 01 	lds	r24, 0x0113
    17a0:	be dc       	rcall	.-1668   	; 0x111e <print_decXX>
								COM_putchar(':');
    17a2:	8a e3       	ldi	r24, 0x3A	; 58
    17a4:	51 dc       	rcall	.-1886   	; 0x1048 <COM_putchar>
								print_decXX(RTC_GetMinute());
    17a6:	80 91 14 01 	lds	r24, 0x0114
    17aa:	b9 dc       	rcall	.-1678   	; 0x111e <print_decXX>
								COM_putchar(':');
    17ac:	8a e3       	ldi	r24, 0x3A	; 58
    17ae:	4c dc       	rcall	.-1896   	; 0x1048 <COM_putchar>
								print_decXX(RTC_GetSecond());
    17b0:	80 91 15 01 	lds	r24, 0x0115
    17b4:	39 c0       	rjmp	.+114    	; 0x1828 <COM_command_parse+0x40e>
								break; 
							}
						case 'C':
							{
								COM_putchar(sub);
    17b6:	83 e4       	ldi	r24, 0x43	; 67
    17b8:	47 dc       	rcall	.-1906   	; 0x1048 <COM_putchar>
								if (COM_hex_parse(1*2)!='\0') { 
    17ba:	82 e0       	ldi	r24, 0x02	; 2
    17bc:	30 dd       	rcall	.-1440   	; 0x121e <COM_hex_parse>
    17be:	88 23       	and	r24, r24
    17c0:	09 f0       	breq	.+2      	; 0x17c4 <COM_command_parse+0x3aa>
    17c2:	a1 c0       	rjmp	.+322    	; 0x1906 <COM_command_parse+0x4ec>
									COM_putchar('0');
									break; 
								}
								COM_putchar('1');
    17c4:	81 e3       	ldi	r24, 0x31	; 49
    17c6:	40 dc       	rcall	.-1920   	; 0x1048 <COM_putchar>
								COM_putchar(':');
    17c8:	8a e3       	ldi	r24, 0x3A	; 58
    17ca:	3e dc       	rcall	.-1924   	; 0x1048 <COM_putchar>
								print_idx('E',com_hex[0]);
    17cc:	85 e4       	ldi	r24, 0x45	; 69
    17ce:	60 91 12 02 	lds	r22, 0x0212
    17d2:	50 dd       	rcall	.-1376   	; 0x1274 <print_idx>
								if (com_hex[0]==0xff) {
    17d4:	e0 91 12 02 	lds	r30, 0x0212
    17d8:	ef 3f       	cpi	r30, 0xFF	; 255
    17da:	11 f4       	brne	.+4      	; 0x17e0 <COM_command_parse+0x3c6>
									print_hexXX(EE_LAYOUT);
    17dc:	85 e1       	ldi	r24, 0x15	; 21
    17de:	a2 c0       	rjmp	.+324    	; 0x1924 <COM_command_parse+0x50a>
								}
								else {
									print_hexXX(config_raw[com_hex[0]]);
    17e0:	f0 e0       	ldi	r31, 0x00	; 0
    17e2:	e6 57       	subi	r30, 0x76	; 118
    17e4:	fd 4f       	sbci	r31, 0xFD	; 253
    17e6:	80 81       	ld	r24, Z
    17e8:	9d c0       	rjmp	.+314    	; 0x1924 <COM_command_parse+0x50a>
								}
								break;
							} 
						case 'B':
							{
								COM_putchar(sub);
    17ea:	82 e4       	ldi	r24, 0x42	; 66
    17ec:	2d dc       	rcall	.-1958   	; 0x1048 <COM_putchar>
								COM_putchar('1');	
    17ee:	81 e3       	ldi	r24, 0x31	; 49
    17f0:	2b dc       	rcall	.-1962   	; 0x1048 <COM_putchar>
								COM_putchar(':');	
    17f2:	8a e3       	ldi	r24, 0x3A	; 58
    17f4:	29 dc       	rcall	.-1966   	; 0x1048 <COM_putchar>
								print_decXXXX(bat_average);
    17f6:	80 91 24 02 	lds	r24, 0x0224
    17fa:	90 91 25 02 	lds	r25, 0x0225
    17fe:	7f c0       	rjmp	.+254    	; 0x18fe <COM_command_parse+0x4e4>
								break;
							}
						case 'T':
							{
								COM_putchar(sub);
    1800:	84 e5       	ldi	r24, 0x54	; 84
    1802:	22 dc       	rcall	.-1980   	; 0x1048 <COM_putchar>
								COM_putchar('1');	
    1804:	81 e3       	ldi	r24, 0x31	; 49
    1806:	20 dc       	rcall	.-1984   	; 0x1048 <COM_putchar>
								COM_putchar(':');	
    1808:	8a e3       	ldi	r24, 0x3A	; 58
    180a:	1e dc       	rcall	.-1988   	; 0x1048 <COM_putchar>
								print_decXXXX(calc_temp(CTL_temp_wanted_last));
    180c:	80 91 06 01 	lds	r24, 0x0106
    1810:	80 9f       	mul	r24, r16
    1812:	c0 01       	movw	r24, r0
    1814:	11 24       	eor	r1, r1
    1816:	73 c0       	rjmp	.+230    	; 0x18fe <COM_command_parse+0x4e4>
								break;
							}
						case 'V':	
							{
								COM_putchar(sub);
    1818:	86 e5       	ldi	r24, 0x56	; 86
    181a:	16 dc       	rcall	.-2004   	; 0x1048 <COM_putchar>
								COM_putchar('1');	
    181c:	81 e3       	ldi	r24, 0x31	; 49
    181e:	14 dc       	rcall	.-2008   	; 0x1048 <COM_putchar>
								COM_putchar(':');	
    1820:	8a e3       	ldi	r24, 0x3A	; 58
    1822:	12 dc       	rcall	.-2012   	; 0x1048 <COM_putchar>
								print_decXX(valve_wanted);
    1824:	80 91 84 02 	lds	r24, 0x0284
    1828:	7a dc       	rcall	.-1804   	; 0x111e <print_decXX>
    182a:	7d c0       	rjmp	.+250    	; 0x1926 <COM_command_parse+0x50c>
								break;
							}
						case 'I':
							{
								COM_putchar(sub);
    182c:	89 e4       	ldi	r24, 0x49	; 73
    182e:	0c dc       	rcall	.-2024   	; 0x1048 <COM_putchar>
								COM_putchar('1');	
    1830:	81 e3       	ldi	r24, 0x31	; 49
    1832:	0a dc       	rcall	.-2028   	; 0x1048 <COM_putchar>
								COM_putchar(':');	
    1834:	8a e3       	ldi	r24, 0x3A	; 58
    1836:	08 dc       	rcall	.-2032   	; 0x1048 <COM_putchar>
								print_decXXXX(temp_average);
    1838:	80 91 26 02 	lds	r24, 0x0226
    183c:	90 91 27 02 	lds	r25, 0x0227
    1840:	5e c0       	rjmp	.+188    	; 0x18fe <COM_command_parse+0x4e4>
								break;
							}
						case 'P':
							{
								COM_putchar(sub);
    1842:	80 e5       	ldi	r24, 0x50	; 80
    1844:	01 dc       	rcall	.-2046   	; 0x1048 <COM_putchar>
								COM_putchar('1');
    1846:	81 e3       	ldi	r24, 0x31	; 49
    1848:	ff db       	rcall	.-2050   	; 0x1048 <COM_putchar>
								COM_putchar(':');
    184a:	8a e3       	ldi	r24, 0x3A	; 58
    184c:	fd db       	rcall	.-2054   	; 0x1048 <COM_putchar>
								COM_putchar('F');
    184e:	86 e4       	ldi	r24, 0x46	; 70
    1850:	fb db       	rcall	.-2058   	; 0x1048 <COM_putchar>
								print_hexXX(config_raw[1]);
    1852:	80 91 8b 02 	lds	r24, 0x028B
    1856:	b8 dc       	rcall	.-1680   	; 0x11c8 <print_hexXX>
								COM_putchar(',');
    1858:	8c e2       	ldi	r24, 0x2C	; 44
    185a:	f6 db       	rcall	.-2068   	; 0x1048 <COM_putchar>
								COM_putchar('E');
    185c:	85 e4       	ldi	r24, 0x45	; 69
    185e:	f4 db       	rcall	.-2072   	; 0x1048 <COM_putchar>
								print_hexXX(config_raw[2]);
    1860:	80 91 8c 02 	lds	r24, 0x028C
    1864:	b1 dc       	rcall	.-1694   	; 0x11c8 <print_hexXX>
								COM_putchar(',');
    1866:	8c e2       	ldi	r24, 0x2C	; 44
    1868:	ef db       	rcall	.-2082   	; 0x1048 <COM_putchar>
								COM_putchar('C');
    186a:	83 e4       	ldi	r24, 0x43	; 67
    186c:	ed db       	rcall	.-2086   	; 0x1048 <COM_putchar>
								print_hexXX(config_raw[3]);
    186e:	80 91 8d 02 	lds	r24, 0x028D
    1872:	aa dc       	rcall	.-1708   	; 0x11c8 <print_hexXX>
								COM_putchar(',');
    1874:	8c e2       	ldi	r24, 0x2C	; 44
    1876:	e8 db       	rcall	.-2096   	; 0x1048 <COM_putchar>
								COM_putchar('S');
    1878:	83 e5       	ldi	r24, 0x53	; 83
    187a:	e6 db       	rcall	.-2100   	; 0x1048 <COM_putchar>
								print_hexXX(config_raw[4]);
    187c:	80 91 8e 02 	lds	r24, 0x028E
    1880:	51 c0       	rjmp	.+162    	; 0x1924 <COM_command_parse+0x50a>
								break;
							}
						case 'S':
							{
								COM_putchar(sub);
    1882:	83 e5       	ldi	r24, 0x53	; 83
    1884:	e1 db       	rcall	.-2110   	; 0x1048 <COM_putchar>
								if (COM_hex_parse(1)!='\0') { 
    1886:	81 e0       	ldi	r24, 0x01	; 1
    1888:	ca dc       	rcall	.-1644   	; 0x121e <COM_hex_parse>
    188a:	88 23       	and	r24, r24
    188c:	09 f0       	breq	.+2      	; 0x1890 <COM_command_parse+0x476>
    188e:	3b c0       	rjmp	.+118    	; 0x1906 <COM_command_parse+0x4ec>
									COM_putchar('0');

									break;
								}
								if ( (com_hex[0]>>4) < 0 || (com_hex[0]>>4) >= 8) {
    1890:	80 91 12 02 	lds	r24, 0x0212
    1894:	82 95       	swap	r24
    1896:	8f 70       	andi	r24, 0x0F	; 15
    1898:	88 30       	cpi	r24, 0x08	; 8
    189a:	08 f0       	brcs	.+2      	; 0x189e <COM_command_parse+0x484>
    189c:	34 c0       	rjmp	.+104    	; 0x1906 <COM_command_parse+0x4ec>
									COM_putchar('0');
									break;
								}
								COM_putchar('1');
    189e:	81 e3       	ldi	r24, 0x31	; 49
    18a0:	d3 db       	rcall	.-2138   	; 0x1048 <COM_putchar>
								COM_putchar(':');
    18a2:	8a e3       	ldi	r24, 0x3A	; 58
    18a4:	d1 db       	rcall	.-2142   	; 0x1048 <COM_putchar>
								print_digit(com_hex[0]>>4);
    18a6:	80 91 12 02 	lds	r24, 0x0212
    18aa:	82 95       	swap	r24
    18ac:	8f 70       	andi	r24, 0x0F	; 15
    18ae:	54 dc       	rcall	.-1880   	; 0x1158 <print_digit>
    18b0:	10 e0       	ldi	r17, 0x00	; 0
								int i;
								for (i=0;i<RTC_TIMERS_PER_DOW;i++){
									COM_putchar(',');
    18b2:	8c e2       	ldi	r24, 0x2C	; 44
    18b4:	c9 db       	rcall	.-2158   	; 0x1048 <COM_putchar>
									print_hexXXXX(eeprom_timers_read_raw(
    18b6:	80 91 12 02 	lds	r24, 0x0212
    18ba:	82 95       	swap	r24
    18bc:	8f 70       	andi	r24, 0x0F	; 15
    18be:	88 0f       	add	r24, r24
    18c0:	88 0f       	add	r24, r24
    18c2:	88 0f       	add	r24, r24
    18c4:	81 0f       	add	r24, r17
    18c6:	0e 94 87 14 	call	0x290e	; 0x290e <eeprom_timers_read_raw>
    18ca:	92 dc       	rcall	.-1756   	; 0x11f0 <print_hexXXXX>
    18cc:	1f 5f       	subi	r17, 0xFF	; 255
								}
								COM_putchar('1');
								COM_putchar(':');
								print_digit(com_hex[0]>>4);
								int i;
								for (i=0;i<RTC_TIMERS_PER_DOW;i++){
    18ce:	18 30       	cpi	r17, 0x08	; 8
    18d0:	81 f7       	brne	.-32     	; 0x18b2 <COM_command_parse+0x498>
    18d2:	29 c0       	rjmp	.+82     	; 0x1926 <COM_command_parse+0x50c>
								break;

							}
						case 'D':
							{
								COM_putchar(sub);
    18d4:	84 e4       	ldi	r24, 0x44	; 68
    18d6:	b8 db       	rcall	.-2192   	; 0x1048 <COM_putchar>
								COM_putchar('1');
    18d8:	81 e3       	ldi	r24, 0x31	; 49
    18da:	b6 db       	rcall	.-2196   	; 0x1048 <COM_putchar>
								COM_putchar(':');
    18dc:	8a e3       	ldi	r24, 0x3A	; 58
    18de:	b4 db       	rcall	.-2200   	; 0x1048 <COM_putchar>
								print_decXXXX(CTL_temp_threshold);
    18e0:	80 91 07 01 	lds	r24, 0x0107
    18e4:	90 91 08 01 	lds	r25, 0x0108
    18e8:	0a c0       	rjmp	.+20     	; 0x18fe <COM_command_parse+0x4e4>
								break;
							}		
						case 'A':
							{
								COM_putchar(sub);
    18ea:	81 e4       	ldi	r24, 0x41	; 65
    18ec:	ad db       	rcall	.-2214   	; 0x1048 <COM_putchar>
								COM_putchar('1');
    18ee:	81 e3       	ldi	r24, 0x31	; 49
    18f0:	ab db       	rcall	.-2218   	; 0x1048 <COM_putchar>
								COM_putchar(':');
    18f2:	8a e3       	ldi	r24, 0x3A	; 58
    18f4:	a9 db       	rcall	.-2222   	; 0x1048 <COM_putchar>
								print_decXXXX(CTL_bat_threshold);
    18f6:	80 91 09 01 	lds	r24, 0x0109
    18fa:	90 91 0a 01 	lds	r25, 0x010A
    18fe:	52 dc       	rcall	.-1884   	; 0x11a4 <print_decXXXX>
    1900:	12 c0       	rjmp	.+36     	; 0x1926 <COM_command_parse+0x50c>
								break;
							}		
						default:
							{
								COM_putchar('0');
    1902:	80 e3       	ldi	r24, 0x30	; 48
    1904:	a1 db       	rcall	.-2238   	; 0x1048 <COM_putchar>
								COM_putchar('0');
    1906:	80 e3       	ldi	r24, 0x30	; 48
    1908:	9f db       	rcall	.-2242   	; 0x1048 <COM_putchar>
    190a:	0d c0       	rjmp	.+26     	; 0x1926 <COM_command_parse+0x50c>
									 break;

									 }
				 */
			case 'L':
				if (COM_hex_parse(1*2)!='\0') { break; }
    190c:	82 e0       	ldi	r24, 0x02	; 2
    190e:	87 dc       	rcall	.-1778   	; 0x121e <COM_hex_parse>
    1910:	88 23       	and	r24, r24
    1912:	49 f4       	brne	.+18     	; 0x1926 <COM_command_parse+0x50c>
				if (com_hex[0]<=1) menu_locked=com_hex[0];
    1914:	80 91 12 02 	lds	r24, 0x0212
    1918:	82 30       	cpi	r24, 0x02	; 2
    191a:	10 f4       	brcc	.+4      	; 0x1920 <COM_command_parse+0x506>
    191c:	80 93 73 02 	sts	0x0273, r24
				print_hexXX(menu_locked);
    1920:	80 91 73 02 	lds	r24, 0x0273
    1924:	51 dc       	rcall	.-1886   	; 0x11c8 <print_hexXX>
				//		case '\0':
			default:
				c='\0';
				break;
		}
		if (c!='\0') COM_putchar('\n');
    1926:	8a e0       	ldi	r24, 0x0A	; 10
    1928:	8f db       	rcall	.-2274   	; 0x1048 <COM_putchar>
		COM_flush();
    192a:	b1 dc       	rcall	.-1694   	; 0x128e <COM_flush>
 * 	\note	Lxx\n - Lock keys, and return lock status (00=unlock, 01=lock, 02=status only)
 *	
 ******************************************************************************/
void COM_command_parse (void) {
	char c;
	while (COM_requests) {
    192c:	80 91 11 02 	lds	r24, 0x0211
    1930:	88 23       	and	r24, r24
    1932:	09 f0       	breq	.+2      	; 0x1936 <COM_command_parse+0x51c>
    1934:	76 cd       	rjmp	.-1300   	; 0x1422 <COM_command_parse+0x8>
		COM_flush();
#if (RFM==1)
		rfm_start_tx();
#endif
	}
}
    1936:	1f 91       	pop	r17
    1938:	0f 91       	pop	r16
    193a:	08 95       	ret

0000193c <COM_send_valve_event>:
/*!
 *******************************************************************************
 *  \brief Event Valve Changed *
 *  \note
 ******************************************************************************/
void COM_send_valve_event(uint8_t e){
    193c:	1f 93       	push	r17
    193e:	18 2f       	mov	r17, r24
	COM_putchar('E');
    1940:	85 e4       	ldi	r24, 0x45	; 69
    1942:	82 db       	rcall	.-2300   	; 0x1048 <COM_putchar>
	COM_putchar('V');
    1944:	86 e5       	ldi	r24, 0x56	; 86
    1946:	80 db       	rcall	.-2304   	; 0x1048 <COM_putchar>
	COM_putchar(':');
    1948:	8a e3       	ldi	r24, 0x3A	; 58
    194a:	7e db       	rcall	.-2308   	; 0x1048 <COM_putchar>
	print_decXX(e);
    194c:	81 2f       	mov	r24, r17
    194e:	e7 db       	rcall	.-2098   	; 0x111e <print_decXX>
	COM_putchar('\n');
    1950:	8a e0       	ldi	r24, 0x0A	; 10
    1952:	7a db       	rcall	.-2316   	; 0x1048 <COM_putchar>
	COM_flush();
    1954:	9c dc       	rcall	.-1736   	; 0x128e <COM_flush>
}
    1956:	1f 91       	pop	r17
    1958:	08 95       	ret

0000195a <COM_send_error_event>:
/*!
 *******************************************************************************
 *  \brief Event Error *
 *  \note
 ******************************************************************************/
void COM_send_error_event(uint8_t e){
    195a:	1f 93       	push	r17
    195c:	18 2f       	mov	r17, r24
	COM_putchar('E');
    195e:	85 e4       	ldi	r24, 0x45	; 69
    1960:	73 db       	rcall	.-2330   	; 0x1048 <COM_putchar>
	COM_putchar('E');
    1962:	85 e4       	ldi	r24, 0x45	; 69
    1964:	71 db       	rcall	.-2334   	; 0x1048 <COM_putchar>
	COM_putchar(':');
    1966:	8a e3       	ldi	r24, 0x3A	; 58
    1968:	6f db       	rcall	.-2338   	; 0x1048 <COM_putchar>
	print_hexXX(e);
    196a:	81 2f       	mov	r24, r17
    196c:	2d dc       	rcall	.-1958   	; 0x11c8 <print_hexXX>
	COM_putchar('\n');
    196e:	8a e0       	ldi	r24, 0x0A	; 10
    1970:	6b db       	rcall	.-2346   	; 0x1048 <COM_putchar>
	COM_flush();
    1972:	8d dc       	rcall	.-1766   	; 0x128e <COM_flush>
}
    1974:	1f 91       	pop	r17
    1976:	08 95       	ret

00001978 <COM_send_battery_event>:
/*!
 *******************************************************************************
 *  \brief Send Battery Change *
 *  \note
 ******************************************************************************/
void COM_send_battery_event(uint16_t t){
    1978:	0f 93       	push	r16
    197a:	1f 93       	push	r17
    197c:	8c 01       	movw	r16, r24
	COM_putchar('E');
    197e:	85 e4       	ldi	r24, 0x45	; 69
    1980:	63 db       	rcall	.-2362   	; 0x1048 <COM_putchar>
	COM_putchar('B');
    1982:	82 e4       	ldi	r24, 0x42	; 66
    1984:	61 db       	rcall	.-2366   	; 0x1048 <COM_putchar>
	COM_putchar(':');
    1986:	8a e3       	ldi	r24, 0x3A	; 58
    1988:	5f db       	rcall	.-2370   	; 0x1048 <COM_putchar>
	print_decXXXX(t);
    198a:	c8 01       	movw	r24, r16
    198c:	0b dc       	rcall	.-2026   	; 0x11a4 <print_decXXXX>
	COM_putchar('\n');
    198e:	8a e0       	ldi	r24, 0x0A	; 10
    1990:	5b db       	rcall	.-2378   	; 0x1048 <COM_putchar>
	COM_flush();
    1992:	7d dc       	rcall	.-1798   	; 0x128e <COM_flush>
}
    1994:	1f 91       	pop	r17
    1996:	0f 91       	pop	r16
    1998:	08 95       	ret

0000199a <COM_send_temperature_event>:
/*!
 *******************************************************************************
 *  \brief Event Temperature Change *
 *  \note
 ******************************************************************************/
void COM_send_temperature_event(uint16_t t){
    199a:	0f 93       	push	r16
    199c:	1f 93       	push	r17
    199e:	8c 01       	movw	r16, r24
	COM_putchar('E');
    19a0:	85 e4       	ldi	r24, 0x45	; 69
    19a2:	52 db       	rcall	.-2396   	; 0x1048 <COM_putchar>
	COM_putchar('T');
    19a4:	84 e5       	ldi	r24, 0x54	; 84
    19a6:	50 db       	rcall	.-2400   	; 0x1048 <COM_putchar>
	COM_putchar(':');
    19a8:	8a e3       	ldi	r24, 0x3A	; 58
    19aa:	4e db       	rcall	.-2404   	; 0x1048 <COM_putchar>
	print_decXXXX(t);
    19ac:	c8 01       	movw	r24, r16
    19ae:	fa db       	rcall	.-2060   	; 0x11a4 <print_decXXXX>
	COM_putchar('\n');
    19b0:	8a e0       	ldi	r24, 0x0A	; 10
    19b2:	4a db       	rcall	.-2412   	; 0x1048 <COM_putchar>
	COM_flush();
    19b4:	6c dc       	rcall	.-1832   	; 0x128e <COM_flush>
}
    19b6:	1f 91       	pop	r17
    19b8:	0f 91       	pop	r16
    19ba:	08 95       	ret

000019bc <COM_send_mode_event>:
/*!
 *******************************************************************************
 *  \brief Event Mode Change *
 *  \note
 ******************************************************************************/
void COM_send_mode_event(int8_t m){
    19bc:	1f 93       	push	r17
    19be:	18 2f       	mov	r17, r24
	COM_putchar('E');
    19c0:	85 e4       	ldi	r24, 0x45	; 69
    19c2:	42 db       	rcall	.-2428   	; 0x1048 <COM_putchar>
	COM_putchar('M');
    19c4:	8d e4       	ldi	r24, 0x4D	; 77
    19c6:	40 db       	rcall	.-2432   	; 0x1048 <COM_putchar>
	COM_putchar(':');
    19c8:	8a e3       	ldi	r24, 0x3A	; 58
    19ca:	3e db       	rcall	.-2436   	; 0x1048 <COM_putchar>
	print_decXXX(m);
    19cc:	81 2f       	mov	r24, r17
    19ce:	ca db       	rcall	.-2156   	; 0x1164 <print_decXXX>
	COM_putchar('\n');
    19d0:	8a e0       	ldi	r24, 0x0A	; 10
    19d2:	3a db       	rcall	.-2444   	; 0x1048 <COM_putchar>
	COM_flush();
    19d4:	5c dc       	rcall	.-1864   	; 0x128e <COM_flush>
}
    19d6:	1f 91       	pop	r17
    19d8:	08 95       	ret

000019da <COM_send_wheel_event>:
/*!
 *******************************************************************************
 *  \brief Event Wheel Ticks *
 *  \note
 ******************************************************************************/
void COM_send_wheel_event(int8_t t){
    19da:	1f 93       	push	r17
    19dc:	18 2f       	mov	r17, r24
	COM_putchar('E');
    19de:	85 e4       	ldi	r24, 0x45	; 69
    19e0:	33 db       	rcall	.-2458   	; 0x1048 <COM_putchar>
	COM_putchar('W');
    19e2:	87 e5       	ldi	r24, 0x57	; 87
    19e4:	31 db       	rcall	.-2462   	; 0x1048 <COM_putchar>
	COM_putchar(':');
    19e6:	8a e3       	ldi	r24, 0x3A	; 58
    19e8:	2f db       	rcall	.-2466   	; 0x1048 <COM_putchar>
	uint8_t ticks = (uint8_t) t+128;
	print_decXXX(ticks);
    19ea:	81 2f       	mov	r24, r17
    19ec:	80 58       	subi	r24, 0x80	; 128
    19ee:	ba db       	rcall	.-2188   	; 0x1164 <print_decXXX>
	COM_putchar('\n');
    19f0:	8a e0       	ldi	r24, 0x0A	; 10
    19f2:	2a db       	rcall	.-2476   	; 0x1048 <COM_putchar>
	COM_flush();
    19f4:	4c dc       	rcall	.-1896   	; 0x128e <COM_flush>
}
    19f6:	1f 91       	pop	r17
    19f8:	08 95       	ret

000019fa <COM_init>:
 *******************************************************************************
 *  \brief init communication
 *
 *  \note
 ******************************************************************************/
void COM_init(void) {
    19fa:	cf 93       	push	r28
    19fc:	df 93       	push	r29
 *
 *  \note
 ******************************************************************************/
static void print_version(bool sync) {
	const char * s = (PSTR(VERSION_STRING "\n"));
	COM_putchar('V');
    19fe:	86 e5       	ldi	r24, 0x56	; 86
    1a00:	23 db       	rcall	.-2490   	; 0x1048 <COM_putchar>
 *  \brief helper function print version string
 *
 *  \note
 ******************************************************************************/
static void print_version(bool sync) {
	const char * s = (PSTR(VERSION_STRING "\n"));
    1a02:	e4 ea       	ldi	r30, 0xA4	; 164
    1a04:	f1 e0       	ldi	r31, 0x01	; 1
    1a06:	84 91       	lpm	r24, Z+
    1a08:	ef 01       	movw	r28, r30
    1a0a:	04 c0       	rjmp	.+8      	; 0x1a14 <COM_init+0x1a>
	COM_putchar('V');
	char c;
	for (c = pgm_read_byte(s); c; ++s, c = pgm_read_byte(s)) {
		COM_putchar(c);
    1a0c:	1d db       	rcall	.-2502   	; 0x1048 <COM_putchar>
 ******************************************************************************/
static void print_version(bool sync) {
	const char * s = (PSTR(VERSION_STRING "\n"));
	COM_putchar('V');
	char c;
	for (c = pgm_read_byte(s); c; ++s, c = pgm_read_byte(s)) {
    1a0e:	21 96       	adiw	r28, 0x01	; 1
    1a10:	fe 01       	movw	r30, r28
    1a12:	84 91       	lpm	r24, Z+
    1a14:	88 23       	and	r24, r24
    1a16:	d1 f7       	brne	.-12     	; 0x1a0c <COM_init+0x12>
		COM_putchar(c);
#if RFM==1
		if (sync) wireless_putchar(c);
#endif
	}
	COM_flush();
    1a18:	3a dc       	rcall	.-1932   	; 0x128e <COM_flush>
 *  \note
 ******************************************************************************/
void COM_init(void) {
	print_version(false);
#if (THERMOTRONIC!=1)
	RS_Init();
    1a1a:	0e 94 56 1b 	call	0x36ac	; 0x36ac <RS_Init>
#endif
	COM_flush();
    1a1e:	37 dc       	rcall	.-1938   	; 0x128e <COM_flush>
}
    1a20:	df 91       	pop	r29
    1a22:	cf 91       	pop	r28
    1a24:	08 95       	ret

00001a26 <xtea_enc>:
; param3: 16-bit pointer to the key (128-bit) 
;  given in r21,r20
;
xtea_enc:
 /* prolog */
 	push r2
    1a26:	2f 92       	push	r2
 	push r3
    1a28:	3f 92       	push	r3
 	push r4
    1a2a:	4f 92       	push	r4
 	push r5
    1a2c:	5f 92       	push	r5
 	push r6
    1a2e:	6f 92       	push	r6
 	push r7
    1a30:	7f 92       	push	r7
 	push r8
    1a32:	8f 92       	push	r8
 	push r9
    1a34:	9f 92       	push	r9
 	push r14
    1a36:	ef 92       	push	r14
 	push r15
    1a38:	ff 92       	push	r15
 	push r16
    1a3a:	0f 93       	push	r16
 	push r17
    1a3c:	1f 93       	push	r17
 	push r28
    1a3e:	cf 93       	push	r28
 	
 /* load the block */
 	movw r26, r22 /* X points to block */
    1a40:	db 01       	movw	r26, r22
 	movw r30, r20 /* Z points to key   */
    1a42:	fa 01       	movw	r30, r20
 	ld V01, X+
    1a44:	2d 90       	ld	r2, X+
 	ld V02, X+
    1a46:	3d 90       	ld	r3, X+
 	ld V03, X+
    1a48:	4d 90       	ld	r4, X+
 	ld V04, X+
    1a4a:	5d 90       	ld	r5, X+
 	ld V11, X+
    1a4c:	6d 90       	ld	r6, X+
 	ld V12, X+
    1a4e:	7d 90       	ld	r7, X+
 	ld V13, X+
    1a50:	8d 90       	ld	r8, X+
 	ld V14, X+
    1a52:	9d 90       	ld	r9, X+
; 	push r25
; 	push r24
 	movw r26, r24 /* X points to destination */
    1a54:	dc 01       	movw	r26, r24
 
	ldi Func1, 32
    1a56:	60 e2       	ldi	r22, 0x20	; 32
	mov r0, Func1 /* r1 is cycle-counter */
    1a58:	06 2e       	mov	r0, r22
	clr Sum1
    1a5a:	22 27       	eor	r18, r18
	clr Sum2
    1a5c:	33 27       	eor	r19, r19
	movw Sum3, Sum1
    1a5e:	a9 01       	movw	r20, r18
	clt
    1a60:	e8 94       	clt

1:
	movw Accu1, V11
    1a62:	73 01       	movw	r14, r6
	movw Accu3, V13
    1a64:	84 01       	movw	r16, r8
	ldi C, 4
    1a66:	c4 e0       	ldi	r28, 0x04	; 4
2:	lsl Accu1
    1a68:	ee 0c       	add	r14, r14
	rol Accu2
    1a6a:	ff 1c       	adc	r15, r15
	rol Accu3
    1a6c:	00 1f       	adc	r16, r16
	rol Accu4
    1a6e:	11 1f       	adc	r17, r17
	dec C
    1a70:	ca 95       	dec	r28
	brne 2b			/* Accu == V1 << 4 */
    1a72:	d1 f7       	brne	.-12     	; 0x1a68 <xtea_enc+0x42>

	movw Func1, V11
    1a74:	b3 01       	movw	r22, r6
	movw Func3, V13
    1a76:	c4 01       	movw	r24, r8
	ldi C, 5
    1a78:	c5 e0       	ldi	r28, 0x05	; 5
3:	lsr Func4
    1a7a:	96 95       	lsr	r25
	ror Func3
    1a7c:	87 95       	ror	r24
	ror Func2
    1a7e:	77 95       	ror	r23
	ror Func1
    1a80:	67 95       	ror	r22
	dec C
    1a82:	ca 95       	dec	r28
	brne 3b			/* Func == V1 >> 5 */
    1a84:	d1 f7       	brne	.-12     	; 0x1a7a <xtea_enc+0x54>
	
	eor Accu1, Func1
    1a86:	e6 26       	eor	r14, r22
	eor Accu2, Func2
    1a88:	f7 26       	eor	r15, r23
	eor Accu3, Func3
    1a8a:	08 27       	eor	r16, r24
	eor Accu4, Func4
    1a8c:	19 27       	eor	r17, r25
	add Accu1, V11
    1a8e:	e6 0c       	add	r14, r6
	adc Accu2, V12
    1a90:	f7 1c       	adc	r15, r7
	adc Accu3, V13
    1a92:	08 1d       	adc	r16, r8
	adc Accu4, V14	/* Accu == ( (V1<<4)^(V1>>5) ) + V1 */
    1a94:	19 1d       	adc	r17, r9
	
	brtc 4f
    1a96:	2e f4       	brtc	.+10     	; 0x1aa2 <xtea_enc+0x7c>
	mov C, Sum2
    1a98:	c3 2f       	mov	r28, r19
	lsr C
    1a9a:	c6 95       	lsr	r28
	andi C,(0x03 <<2)
    1a9c:	cc 70       	andi	r28, 0x0C	; 12
	clt
    1a9e:	e8 94       	clt
	rjmp 5f
    1aa0:	05 c0       	rjmp	.+10     	; 0x1aac <xtea_enc+0x86>
4:	
	mov C, Sum1	/* calc key offset */
    1aa2:	c2 2f       	mov	r28, r18
	andi C, 0x03
    1aa4:	c3 70       	andi	r28, 0x03	; 3
	lsl C
    1aa6:	cc 0f       	add	r28, r28
	lsl C
    1aa8:	cc 0f       	add	r28, r28
	set
    1aaa:	68 94       	set
	
5:	
	add r30, C
    1aac:	ec 0f       	add	r30, r28
	adc r31, r1
    1aae:	f1 1d       	adc	r31, r1
	ld  Func1, Z
    1ab0:	60 81       	ld	r22, Z
	ldd Func2, Z+1
    1ab2:	71 81       	ldd	r23, Z+1	; 0x01
	ldd Func3, Z+2
    1ab4:	82 81       	ldd	r24, Z+2	; 0x02
	ldd Func4, Z+3 /* Func = key[sum & 3] */
    1ab6:	93 81       	ldd	r25, Z+3	; 0x03
	sub r30, C
    1ab8:	ec 1b       	sub	r30, r28
	sbci r31, 0
    1aba:	f0 40       	sbci	r31, 0x00	; 0
	add Func1, Sum1
    1abc:	62 0f       	add	r22, r18
	adc Func2, Sum2
    1abe:	73 1f       	adc	r23, r19
	adc Func3, Sum3
    1ac0:	84 1f       	adc	r24, r20
	adc Func4, Sum4 
    1ac2:	95 1f       	adc	r25, r21
	eor Accu1, Func1
    1ac4:	e6 26       	eor	r14, r22
	eor Accu2, Func2
    1ac6:	f7 26       	eor	r15, r23
	eor Accu3, Func3
    1ac8:	08 27       	eor	r16, r24
	eor Accu4, Func4 /* Accu = ((V1<<4 ^ V1>>5) + V1) ^ (sum + key[sum&3])  */
    1aca:	19 27       	eor	r17, r25
	add Accu1, V01
    1acc:	e2 0c       	add	r14, r2
	adc Accu2, V02
    1ace:	f3 1c       	adc	r15, r3
	adc Accu3, V03
    1ad0:	04 1d       	adc	r16, r4
	adc Accu4, V04
    1ad2:	15 1d       	adc	r17, r5
	
	movw V01, V11
    1ad4:	13 01       	movw	r2, r6
	movw V03, V13
    1ad6:	24 01       	movw	r4, r8
	movw V11, Accu1
    1ad8:	37 01       	movw	r6, r14
	movw V13, Accu3
    1ada:	48 01       	movw	r8, r16
	
	/* sum += delta */ /* delta == 0x9E3779B9 */
	brtc 6f
    1adc:	4e f4       	brtc	.+18     	; 0x1af0 <xtea_enc+0xca>
	ldi C, 0xB9
    1ade:	c9 eb       	ldi	r28, 0xB9	; 185
	add Sum1, C
    1ae0:	2c 0f       	add	r18, r28
	ldi C, 0x79
    1ae2:	c9 e7       	ldi	r28, 0x79	; 121
	adc Sum2, C
    1ae4:	3c 1f       	adc	r19, r28
	ldi C, 0x37
    1ae6:	c7 e3       	ldi	r28, 0x37	; 55
	adc Sum3, C
    1ae8:	4c 1f       	adc	r20, r28
	ldi C, 0x9E
    1aea:	ce e9       	ldi	r28, 0x9E	; 158
	adc Sum4, C
    1aec:	5c 1f       	adc	r21, r28
	rjmp 1b
    1aee:	b9 cf       	rjmp	.-142    	; 0x1a62 <xtea_enc+0x3c>
	
6:	
	dec r0
    1af0:	0a 94       	dec	r0
	breq 7f
    1af2:	09 f0       	breq	.+2      	; 0x1af6 <xtea_enc+0xd0>
	rjmp 1b 
    1af4:	b6 cf       	rjmp	.-148    	; 0x1a62 <xtea_enc+0x3c>
 
 7:
 /* write block back */
 ;	pop r26
 ;	pop r27
 	st X+, V01
    1af6:	2d 92       	st	X+, r2
 	st X+, V02
    1af8:	3d 92       	st	X+, r3
 	st X+, V03
    1afa:	4d 92       	st	X+, r4
  	st X+, V04
    1afc:	5d 92       	st	X+, r5
 	st X+, V11
    1afe:	6d 92       	st	X+, r6
 	st X+, V12
    1b00:	7d 92       	st	X+, r7
 	st X+, V13
    1b02:	8d 92       	st	X+, r8
 	st X+, V14
    1b04:	9d 92       	st	X+, r9
 
 /* epilog */
 	pop r28
    1b06:	cf 91       	pop	r28
 	pop r17
    1b08:	1f 91       	pop	r17
 	pop r16
    1b0a:	0f 91       	pop	r16
 	pop r15
    1b0c:	ff 90       	pop	r15
 	pop r14
    1b0e:	ef 90       	pop	r14
 	pop r9
    1b10:	9f 90       	pop	r9
 	pop r8
    1b12:	8f 90       	pop	r8
 	pop r7
    1b14:	7f 90       	pop	r7
 	pop r6
    1b16:	6f 90       	pop	r6
 	pop r5
    1b18:	5f 90       	pop	r5
 	pop r4
    1b1a:	4f 90       	pop	r4
 	pop r3
    1b1c:	3f 90       	pop	r3
 	pop r2
    1b1e:	2f 90       	pop	r2
 	ret
    1b20:	08 95       	ret

00001b22 <RTC_SetHour>:
 *  set actual time
 *  \param hour new value for hour
 ******************************************************************************/
void RTC_SetHour(int8_t hour)
{
    RTC.hh = (uint8_t)(hour+24)%24;
    1b22:	88 5e       	subi	r24, 0xE8	; 232
    1b24:	68 e1       	ldi	r22, 0x18	; 24
    1b26:	0e 94 04 1c 	call	0x3808	; 0x3808 <__udivmodqi4>
    1b2a:	90 93 13 01 	sts	0x0113, r25
}
    1b2e:	08 95       	ret

00001b30 <RTC_SetMinute>:
 *  set actual time
 *  \param minute new value for minute
 ******************************************************************************/
void RTC_SetMinute(int8_t minute)
{
    RTC.mm = (uint8_t)(minute+60)%60;
    1b30:	84 5c       	subi	r24, 0xC4	; 196
    1b32:	6c e3       	ldi	r22, 0x3C	; 60
    1b34:	0e 94 04 1c 	call	0x3808	; 0x3808 <__udivmodqi4>
    1b38:	90 93 14 01 	sts	0x0114, r25
}
    1b3c:	08 95       	ret

00001b3e <RTC_SetSecond>:
 *  set actual time
 *  \param second new value for second
 ******************************************************************************/
void RTC_SetSecond(int8_t second)
{
    RTC.ss = (uint8_t)(second+60)%60;
    1b3e:	84 5c       	subi	r24, 0xC4	; 196
    1b40:	6c e3       	ldi	r22, 0x3C	; 60
    1b42:	0e 94 04 1c 	call	0x3808	; 0x3808 <__udivmodqi4>
    1b46:	90 93 15 01 	sts	0x0115, r25
}
    1b4a:	08 95       	ret

00001b4c <RTC_timer_set>:

void RTC_timer_set(uint8_t timer_id, uint8_t time) {
    uint8_t t2,i,next,dif;
    // next is uninitialized, it is correct
    
    cli();
    1b4c:	f8 94       	cli
    RTC_timer_todo |= _BV(timer_id);
    1b4e:	e8 2f       	mov	r30, r24
    1b50:	f0 e0       	ldi	r31, 0x00	; 0
    1b52:	81 e0       	ldi	r24, 0x01	; 1
    1b54:	90 e0       	ldi	r25, 0x00	; 0
    1b56:	0e 2e       	mov	r0, r30
    1b58:	02 c0       	rjmp	.+4      	; 0x1b5e <RTC_timer_set+0x12>
    1b5a:	88 0f       	add	r24, r24
    1b5c:	99 1f       	adc	r25, r25
    1b5e:	0a 94       	dec	r0
    1b60:	e2 f7       	brpl	.-8      	; 0x1b5a <RTC_timer_set+0xe>
    1b62:	20 91 15 02 	lds	r18, 0x0215
    1b66:	28 2b       	or	r18, r24
    1b68:	20 93 15 02 	sts	0x0215, r18
	RTC_timer_time[timer_id-1]=time;
    1b6c:	ea 5e       	subi	r30, 0xEA	; 234
    1b6e:	fd 4f       	sbci	r31, 0xFD	; 253
    1b70:	60 83       	st	Z, r22
    t2=TCNT2;
    1b72:	80 91 b2 00 	lds	r24, 0x00B2
    dif=255;
    for (i=0;i<RTC_TIMERS;i++) {
        if ((RTC_timer_todo&(2<<i))) {
    1b76:	21 ff       	sbrs	r18, 1
    1b78:	02 c0       	rjmp	.+4      	; 0x1b7e <RTC_timer_set+0x32>
            if ((RTC_timer_time[i]-t2)<=dif) {
    1b7a:	90 91 17 02 	lds	r25, 0x0217
        }
    }
    #if defined(MASTER_CONFIG_H)
        RTC_next_compare = next;
    #else
        if (OCR2A != next) {
    1b7e:	80 91 b3 00 	lds	r24, 0x00B3
    1b82:	89 17       	cp	r24, r25
    1b84:	31 f0       	breq	.+12     	; 0x1b92 <RTC_timer_set+0x46>
            while (ASSR & (1<<OCR2UB)) {;} // ATmega169 datasheet chapter 17.8.1
    1b86:	80 91 b6 00 	lds	r24, 0x00B6
    1b8a:	81 fd       	sbrc	r24, 1
    1b8c:	fc cf       	rjmp	.-8      	; 0x1b86 <RTC_timer_set+0x3a>
            OCR2A = next;
    1b8e:	90 93 b3 00 	sts	0x00B3, r25
        }
    #endif
    sei();
    1b92:	78 94       	sei
    #if ! defined(MASTER_CONFIG_H)
        TIMSK2 |= (1<<OCIE2A); // enable interupt again
    1b94:	80 91 70 00 	lds	r24, 0x0070
    1b98:	82 60       	ori	r24, 0x02	; 2
    1b9a:	80 93 70 00 	sts	0x0070, r24
    #endif
}
    1b9e:	08 95       	ret

00001ba0 <__vector_5>:
        #endif
    }
    #else
    // optimized
    ISR_NAKED ISR (TIMER2_OVF_vect) {
        asm volatile(
    1ba0:	0f 93       	push	r16
    1ba2:	0f b7       	in	r16, 0x3f	; 63
    1ba4:	0f 93       	push	r16
    1ba6:	f1 9a       	sbi	0x1e, 1	; 30
    1ba8:	00 91 16 02 	lds	r16, 0x0216
    1bac:	01 68       	ori	r16, 0x81	; 129
    1bae:	00 93 16 02 	sts	0x0216, r16
    1bb2:	0f 91       	pop	r16
    1bb4:	0f bf       	out	0x3f, r16	; 63
    1bb6:	0f 91       	pop	r16
    1bb8:	18 95       	reti

00001bba <__vector_4>:
     *
     *  \note - clear keyboard timeout flag
     *  \note - disable this interrupt 
     *
     ******************************************************************************/
    ISR(TIMER2_COMP_vect) {
    1bba:	1f 92       	push	r1
    1bbc:	0f 92       	push	r0
    1bbe:	0f b6       	in	r0, 0x3f	; 63
    1bc0:	0f 92       	push	r0
    1bc2:	11 24       	eor	r1, r1
    1bc4:	2f 93       	push	r18
    1bc6:	8f 93       	push	r24
    1bc8:	9f 93       	push	r25
		uint8_t t2=TCNT2-1;
    1bca:	90 91 b2 00 	lds	r25, 0x00B2
    1bce:	91 50       	subi	r25, 0x01	; 1
        task |= TASK_RTC;
    1bd0:	f1 9a       	sbi	0x1e, 1	; 30
        #if (DEBUG_PRINT_RTC_TICKS)
            COM_putchar('%');
        #endif
        if ((RTC_timer_todo&_BV(RTC_TIMER_KB)) && (t2==RTC_timer_time[RTC_TIMER_KB-1])) { 
    1bd2:	20 91 15 02 	lds	r18, 0x0215
    1bd6:	21 ff       	sbrs	r18, 1
    1bd8:	0a c0       	rjmp	.+20     	; 0x1bee <__vector_4+0x34>
    1bda:	80 91 17 02 	lds	r24, 0x0217
    1bde:	98 17       	cp	r25, r24
    1be0:	31 f4       	brne	.+12     	; 0x1bee <__vector_4+0x34>
            kb_timeout=true;   // keyboard noise cancelation
    1be2:	81 e0       	ldi	r24, 0x01	; 1
    1be4:	80 93 17 01 	sts	0x0117, r24
            RTC_timer_todo &= ~_BV(RTC_TIMER_KB);
    1be8:	2d 7f       	andi	r18, 0xFD	; 253
    1bea:	20 93 15 02 	sts	0x0215, r18
            }                
        }
        uint8_t dif=255;
        uint8_t i,next;  // next is uninitialized, it is correct
        for (i=0;i<RTC_TIMERS;i++) {
            if ((RTC_timer_todo&(2<<i))) {
    1bee:	20 91 15 02 	lds	r18, 0x0215
    1bf2:	21 ff       	sbrs	r18, 1
    1bf4:	02 c0       	rjmp	.+4      	; 0x1bfa <__vector_4+0x40>
                if ((RTC_timer_time[i]-t2)<=dif) {
    1bf6:	90 91 17 02 	lds	r25, 0x0217
                    next = RTC_timer_time[i];
                    dif = next-t2;
                }
            }
        }
        if (OCR2A != next) {
    1bfa:	80 91 b3 00 	lds	r24, 0x00B3
    1bfe:	89 17       	cp	r24, r25
    1c00:	11 f0       	breq	.+4      	; 0x1c06 <__vector_4+0x4c>
            // while (ASSR & (1<<OCR2UB)) {;} // ATmega169 datasheet chapter 17.8.1
            // waiting is not needed, it not allow timer state machine
            OCR2A = next;
    1c02:	90 93 b3 00 	sts	0x00B3, r25
        }
        if (RTC_timer_todo==0) TIMSK2 &= ~(1<<OCIE2A);
    1c06:	22 23       	and	r18, r18
    1c08:	29 f4       	brne	.+10     	; 0x1c14 <__vector_4+0x5a>
    1c0a:	80 91 70 00 	lds	r24, 0x0070
    1c0e:	8d 7f       	andi	r24, 0xFD	; 253
    1c10:	80 93 70 00 	sts	0x0070, r24
    }
    1c14:	9f 91       	pop	r25
    1c16:	8f 91       	pop	r24
    1c18:	2f 91       	pop	r18
    1c1a:	0f 90       	pop	r0
    1c1c:	0f be       	out	0x3f, r0	; 63
    1c1e:	0f 90       	pop	r0
    1c20:	1f 90       	pop	r1
    1c22:	18 95       	reti

00001c24 <RTC_FindTimerRawIndex>:
 *
 *  \returns  index of timer
 *
 ******************************************************************************/

static uint8_t RTC_FindTimerRawIndex(uint8_t dow,uint16_t time_minutes) {
    1c24:	a0 e0       	ldi	r26, 0x00	; 0
    1c26:	b0 e0       	ldi	r27, 0x00	; 0
    1c28:	e8 e1       	ldi	r30, 0x18	; 24
    1c2a:	fe e0       	ldi	r31, 0x0E	; 14
    1c2c:	0c 94 82 1c 	jmp	0x3904	; 0x3904 <__prologue_saves__+0x2>
    1c30:	d8 2e       	mov	r13, r24
    1c32:	3b 01       	movw	r6, r22
    
    uint8_t search_timers=(dow>0)?8:2;
    1c34:	88 23       	and	r24, r24
    1c36:	19 f4       	brne	.+6      	; 0x1c3e <RTC_FindTimerRawIndex+0x1a>
    1c38:	42 e0       	ldi	r20, 0x02	; 2
    1c3a:	34 2e       	mov	r3, r20
    1c3c:	02 c0       	rjmp	.+4      	; 0x1c42 <RTC_FindTimerRawIndex+0x1e>
    1c3e:	38 e0       	ldi	r19, 0x08	; 8
    1c40:	33 2e       	mov	r3, r19
    1c42:	aa 24       	eor	r10, r10
    1c44:	aa 94       	dec	r10
    1c46:	cc 24       	eor	r12, r12
    int8_t raw_index=-1;
    uint8_t i;
    for (i=0;i<search_timers;i++) {
        {
            uint8_t idx_raw = timers_get_raw_index(dow,0);
    1c48:	8d 2c       	mov	r8, r13
    1c4a:	99 24       	eor	r9, r9
    1c4c:	74 01       	movw	r14, r8
    1c4e:	23 e0       	ldi	r18, 0x03	; 3
    1c50:	ee 0c       	add	r14, r14
    1c52:	ff 1c       	adc	r15, r15
    1c54:	2a 95       	dec	r18
    1c56:	e1 f7       	brne	.-8      	; 0x1c50 <RTC_FindTimerRawIndex+0x2c>
    1c58:	5e 2c       	mov	r5, r14
            uint8_t stop = idx_raw+RTC_TIMERS_PER_DOW;
    1c5a:	98 e0       	ldi	r25, 0x08	; 8
    1c5c:	49 2e       	mov	r4, r25
    1c5e:	4e 0c       	add	r4, r14
    1c60:	00 e0       	ldi	r16, 0x00	; 0
    1c62:	10 e0       	ldi	r17, 0x00	; 0
    1c64:	c0 e0       	ldi	r28, 0x00	; 0
    1c66:	d0 e0       	ldi	r29, 0x00	; 0
    1c68:	10 c0       	rjmp	.+32     	; 0x1c8a <RTC_FindTimerRawIndex+0x66>
            uint16_t maxtime=0;   
            // each timer until time_minutes
            for (; idx_raw<stop; idx_raw++){
                // check if timer > maxtime and timer <= actual time
                uint16_t table_time = eeprom_timers_read_raw(idx_raw) & 0x0fff;
    1c6a:	51 d6       	rcall	.+3234   	; 0x290e <eeprom_timers_read_raw>
    1c6c:	9f 70       	andi	r25, 0x0F	; 15
                if (table_time>=24*60) continue;
    1c6e:	25 e0       	ldi	r18, 0x05	; 5
    1c70:	80 3a       	cpi	r24, 0xA0	; 160
    1c72:	92 07       	cpc	r25, r18
    1c74:	48 f4       	brcc	.+18     	; 0x1c88 <RTC_FindTimerRawIndex+0x64>
                if ((table_time >= maxtime) && (table_time <= time_minutes)) {
    1c76:	80 17       	cp	r24, r16
    1c78:	91 07       	cpc	r25, r17
    1c7a:	30 f0       	brcs	.+12     	; 0x1c88 <RTC_FindTimerRawIndex+0x64>
    1c7c:	68 16       	cp	r6, r24
    1c7e:	79 06       	cpc	r7, r25
    1c80:	18 f0       	brcs	.+6      	; 0x1c88 <RTC_FindTimerRawIndex+0x64>
    1c82:	ab 2c       	mov	r10, r11
    1c84:	ae 0c       	add	r10, r14
    1c86:	8c 01       	movw	r16, r24
    1c88:	21 96       	adiw	r28, 0x01	; 1
 *
 *  \returns  index of timer
 *
 ******************************************************************************/

static uint8_t RTC_FindTimerRawIndex(uint8_t dow,uint16_t time_minutes) {
    1c8a:	bc 2e       	mov	r11, r28
    1c8c:	8c 2f       	mov	r24, r28
    1c8e:	85 0d       	add	r24, r5
        {
            uint8_t idx_raw = timers_get_raw_index(dow,0);
            uint8_t stop = idx_raw+RTC_TIMERS_PER_DOW;
            uint16_t maxtime=0;   
            // each timer until time_minutes
            for (; idx_raw<stop; idx_raw++){
    1c90:	84 15       	cp	r24, r4
    1c92:	58 f3       	brcs	.-42     	; 0x1c6a <RTC_FindTimerRawIndex+0x46>
                    maxtime = table_time;
                    raw_index=idx_raw;
                }
            }
        }
        if (raw_index>=0) {
    1c94:	a7 fe       	sbrs	r10, 7
    1c96:	11 c0       	rjmp	.+34     	; 0x1cba <RTC_FindTimerRawIndex+0x96>
            break;
        }
        if (dow>0) dow=(dow+(7-2))%7+1;            
    1c98:	dd 20       	and	r13, r13
    1c9a:	41 f0       	breq	.+16     	; 0x1cac <RTC_FindTimerRawIndex+0x88>
    1c9c:	c4 01       	movw	r24, r8
    1c9e:	05 96       	adiw	r24, 0x05	; 5
    1ca0:	67 e0       	ldi	r22, 0x07	; 7
    1ca2:	70 e0       	ldi	r23, 0x00	; 0
    1ca4:	0e 94 31 1c 	call	0x3862	; 0x3862 <__divmodhi4>
    1ca8:	d8 2e       	mov	r13, r24
    1caa:	d3 94       	inc	r13
static uint8_t RTC_FindTimerRawIndex(uint8_t dow,uint16_t time_minutes) {
    
    uint8_t search_timers=(dow>0)?8:2;
    int8_t raw_index=-1;
    uint8_t i;
    for (i=0;i<search_timers;i++) {
    1cac:	c3 94       	inc	r12
    1cae:	80 ea       	ldi	r24, 0xA0	; 160
    1cb0:	68 2e       	mov	r6, r24
    1cb2:	85 e0       	ldi	r24, 0x05	; 5
    1cb4:	78 2e       	mov	r7, r24
    1cb6:	c3 14       	cp	r12, r3
    1cb8:	38 f2       	brcs	.-114    	; 0x1c48 <RTC_FindTimerRawIndex+0x24>
        }
        if (dow>0) dow=(dow+(7-2))%7+1;            
        time_minutes=24*60;
    }
    return raw_index;    
}
    1cba:	8a 2d       	mov	r24, r10
    1cbc:	cd b7       	in	r28, 0x3d	; 61
    1cbe:	de b7       	in	r29, 0x3e	; 62
    1cc0:	e1 e1       	ldi	r30, 0x11	; 17
    1cc2:	0c 94 9e 1c 	jmp	0x393c	; 0x393c <__epilogue_restores__+0x2>

00001cc6 <RTC_ActualTimerTemperature>:
 *
 *  \returns temperature [see to \ref c2temp]
 *
 ******************************************************************************/

uint8_t RTC_ActualTimerTemperature(bool exact) {
    1cc6:	ff 92       	push	r15
    1cc8:	0f 93       	push	r16
    1cca:	1f 93       	push	r17
    1ccc:	cf 93       	push	r28
    1cce:	df 93       	push	r29
    1cd0:	f8 2e       	mov	r15, r24
    uint16_t minutes=RTC.hh*60 + RTC.mm;
    1cd2:	90 91 13 01 	lds	r25, 0x0113
    1cd6:	8c e3       	ldi	r24, 0x3C	; 60
    1cd8:	98 9f       	mul	r25, r24
    1cda:	e0 01       	movw	r28, r0
    1cdc:	11 24       	eor	r1, r1
    1cde:	80 91 14 01 	lds	r24, 0x0114
    1ce2:	c8 0f       	add	r28, r24
    1ce4:	d1 1d       	adc	r29, r1
    int8_t dow=((config.timer_mode==1)?RTC.DOW:0);
    1ce6:	80 91 ac 02 	lds	r24, 0x02AC
    1cea:	81 30       	cpi	r24, 0x01	; 1
    1cec:	11 f0       	breq	.+4      	; 0x1cf2 <RTC_ActualTimerTemperature+0x2c>
    1cee:	00 e0       	ldi	r16, 0x00	; 0
    1cf0:	02 c0       	rjmp	.+4      	; 0x1cf6 <RTC_ActualTimerTemperature+0x30>
    1cf2:	00 91 16 01 	lds	r16, 0x0116
    int8_t raw_index=RTC_FindTimerRawIndex(dow,minutes);
    1cf6:	80 2f       	mov	r24, r16
    1cf8:	be 01       	movw	r22, r28
    1cfa:	94 df       	rcall	.-216    	; 0x1c24 <RTC_FindTimerRawIndex>
    1cfc:	18 2f       	mov	r17, r24
    uint16_t data = eeprom_timers_read_raw(raw_index);
    1cfe:	07 d6       	rcall	.+3086   	; 0x290e <eeprom_timers_read_raw>
    1d00:	fc 01       	movw	r30, r24
    if (raw_index<0) return 0; //not found
    1d02:	17 fd       	sbrc	r17, 7
    1d04:	15 c0       	rjmp	.+42     	; 0x1d30 <RTC_ActualTimerTemperature+0x6a>
    if (exact) {
    1d06:	ff 20       	and	r15, r15
    1d08:	49 f0       	breq	.+18     	; 0x1d1c <RTC_ActualTimerTemperature+0x56>
        if ((data&0xfff) != minutes) return 0;
    1d0a:	9f 70       	andi	r25, 0x0F	; 15
    1d0c:	8c 17       	cp	r24, r28
    1d0e:	9d 07       	cpc	r25, r29
    1d10:	79 f4       	brne	.+30     	; 0x1d30 <RTC_ActualTimerTemperature+0x6a>
        if ((raw_index/RTC_TIMERS_PER_DOW) != dow) return 0;
    1d12:	15 95       	asr	r17
    1d14:	15 95       	asr	r17
    1d16:	15 95       	asr	r17
    1d18:	10 17       	cp	r17, r16
    1d1a:	51 f4       	brne	.+20     	; 0x1d30 <RTC_ActualTimerTemperature+0x6a>
    }
    return temperature_table[(data >> 12) & 3];
    1d1c:	ef 2f       	mov	r30, r31
    1d1e:	ff 27       	eor	r31, r31
    1d20:	e2 95       	swap	r30
    1d22:	ef 70       	andi	r30, 0x0F	; 15
    1d24:	e3 70       	andi	r30, 0x03	; 3
    1d26:	f0 70       	andi	r31, 0x00	; 0
    1d28:	e5 57       	subi	r30, 0x75	; 117
    1d2a:	fd 4f       	sbci	r31, 0xFD	; 253
    1d2c:	80 81       	ld	r24, Z
    1d2e:	01 c0       	rjmp	.+2      	; 0x1d32 <RTC_ActualTimerTemperature+0x6c>
    1d30:	80 e0       	ldi	r24, 0x00	; 0
}
    1d32:	cd b7       	in	r28, 0x3d	; 61
    1d34:	de b7       	in	r29, 0x3e	; 62
    1d36:	e5 e0       	ldi	r30, 0x05	; 5
    1d38:	0c 94 aa 1c 	jmp	0x3954	; 0x3954 <__epilogue_restores__+0x1a>

00001d3c <RTC_DowTimerGetHourBar>:
 *  \returns bitmap
 *  
 *  \note battery expensive function, use buffer for result  
 *
 ******************************************************************************/
int32_t RTC_DowTimerGetHourBar(uint8_t dow) {
    1d3c:	a0 e0       	ldi	r26, 0x00	; 0
    1d3e:	b0 e0       	ldi	r27, 0x00	; 0
    1d40:	e4 ea       	ldi	r30, 0xA4	; 164
    1d42:	fe e0       	ldi	r31, 0x0E	; 14
    1d44:	0c 94 8b 1c 	jmp	0x3916	; 0x3916 <__prologue_saves__+0x14>
    1d48:	c8 2e       	mov	r12, r24
    1d4a:	77 e1       	ldi	r23, 0x17	; 23
    1d4c:	d7 2e       	mov	r13, r23
    1d4e:	ee 24       	eor	r14, r14
    1d50:	ff 24       	eor	r15, r15
    1d52:	87 01       	movw	r16, r14
    1d54:	c0 ea       	ldi	r28, 0xA0	; 160
    1d56:	d5 e0       	ldi	r29, 0x05	; 5
    int16_t time=24*60;
    int8_t bar_pos=23;
    uint32_t bitmap=0;
    
    while(time>0) {
        int8_t raw_idx=RTC_FindTimerRawIndex(dow, time);
    1d58:	8c 2d       	mov	r24, r12
    1d5a:	be 01       	movw	r22, r28
    1d5c:	63 df       	rcall	.-314    	; 0x1c24 <RTC_FindTimerRawIndex>
        uint16_t table_time = ((raw_idx >= 0) ? eeprom_timers_read_raw(raw_idx) : 0);
    1d5e:	87 ff       	sbrs	r24, 7
    1d60:	03 c0       	rjmp	.+6      	; 0x1d68 <RTC_DowTimerGetHourBar+0x2c>
    1d62:	80 e0       	ldi	r24, 0x00	; 0
    1d64:	90 e0       	ldi	r25, 0x00	; 0
    1d66:	01 c0       	rjmp	.+2      	; 0x1d6a <RTC_DowTimerGetHourBar+0x2e>
    1d68:	d2 d5       	rcall	.+2980   	; 0x290e <eeprom_timers_read_raw>
        bool bit = ((table_time & 0x3000) >= 0x2000);
    1d6a:	9c 01       	movw	r18, r24
    1d6c:	20 70       	andi	r18, 0x00	; 0
    1d6e:	30 73       	andi	r19, 0x30	; 48
        if ((table_time&0xfff) < time) {
    1d70:	9f 70       	andi	r25, 0x0F	; 15
    1d72:	8c 17       	cp	r24, r28
    1d74:	9d 07       	cpc	r25, r29
    1d76:	18 f0       	brcs	.+6      	; 0x1d7e <RTC_DowTimerGetHourBar+0x42>
    1d78:	cf ef       	ldi	r28, 0xFF	; 255
    1d7a:	df ef       	ldi	r29, 0xFF	; 255
    1d7c:	02 c0       	rjmp	.+4      	; 0x1d82 <RTC_DowTimerGetHourBar+0x46>
            time = (table_time&0xfff)-1;
    1d7e:	ec 01       	movw	r28, r24
    1d80:	21 97       	sbiw	r28, 0x01	; 1
    1d82:	4d 2d       	mov	r20, r13
    1d84:	5c e3       	ldi	r21, 0x3C	; 60
    1d86:	45 02       	muls	r20, r21
    1d88:	c0 01       	movw	r24, r0
    1d8a:	11 24       	eor	r1, r1
    1d8c:	14 c0       	rjmp	.+40     	; 0x1db6 <RTC_DowTimerGetHourBar+0x7a>
        } else {
            time = -1;
        }
        {
            while (((int16_t)(bar_pos))*60 > time) {            
	            if (bit) bitmap |= 1;
    1d8e:	60 e2       	ldi	r22, 0x20	; 32
    1d90:	20 30       	cpi	r18, 0x00	; 0
    1d92:	36 07       	cpc	r19, r22
    1d94:	40 f0       	brcs	.+16     	; 0x1da6 <RTC_DowTimerGetHourBar+0x6a>
    1d96:	41 e0       	ldi	r20, 0x01	; 1
    1d98:	50 e0       	ldi	r21, 0x00	; 0
    1d9a:	60 e0       	ldi	r22, 0x00	; 0
    1d9c:	70 e0       	ldi	r23, 0x00	; 0
    1d9e:	e4 2a       	or	r14, r20
    1da0:	f5 2a       	or	r15, r21
    1da2:	06 2b       	or	r16, r22
    1da4:	17 2b       	or	r17, r23
                if (bar_pos>0) bitmap = (bitmap<<1);
    1da6:	1d 14       	cp	r1, r13
    1da8:	24 f4       	brge	.+8      	; 0x1db2 <RTC_DowTimerGetHourBar+0x76>
    1daa:	ee 0c       	add	r14, r14
    1dac:	ff 1c       	adc	r15, r15
    1dae:	00 1f       	adc	r16, r16
    1db0:	11 1f       	adc	r17, r17
                bar_pos--; 
    1db2:	da 94       	dec	r13
    1db4:	cc 97       	sbiw	r24, 0x3c	; 60
            time = (table_time&0xfff)-1;
        } else {
            time = -1;
        }
        {
            while (((int16_t)(bar_pos))*60 > time) {            
    1db6:	c8 17       	cp	r28, r24
    1db8:	d9 07       	cpc	r29, r25
    1dba:	4c f3       	brlt	.-46     	; 0x1d8e <RTC_DowTimerGetHourBar+0x52>
int32_t RTC_DowTimerGetHourBar(uint8_t dow) {
    int16_t time=24*60;
    int8_t bar_pos=23;
    uint32_t bitmap=0;
    
    while(time>0) {
    1dbc:	1c 16       	cp	r1, r28
    1dbe:	1d 06       	cpc	r1, r29
    1dc0:	5c f2       	brlt	.-106    	; 0x1d58 <RTC_DowTimerGetHourBar+0x1c>
                bar_pos--; 
            }
        }
    }
    return bitmap;  
}
    1dc2:	b7 01       	movw	r22, r14
    1dc4:	c8 01       	movw	r24, r16
    1dc6:	cd b7       	in	r28, 0x3d	; 61
    1dc8:	de b7       	in	r29, 0x3e	; 62
    1dca:	e8 e0       	ldi	r30, 0x08	; 8
    1dcc:	0c 94 a7 1c 	jmp	0x394e	; 0x394e <__epilogue_restores__+0x14>

00001dd0 <RTC_AddOneSecond>:
    RTC_Ticks++;          // overflow every 136 Years
#endif
#if (RFM==1)
    RTC.pkt_cnt=0;
#endif
	if (++RTC.ss >= 60) {
    1dd0:	80 91 15 01 	lds	r24, 0x0115
    1dd4:	8f 5f       	subi	r24, 0xFF	; 255
    1dd6:	80 93 15 01 	sts	0x0115, r24
    1dda:	8c 33       	cpi	r24, 0x3C	; 60
    1ddc:	08 f4       	brcc	.+2      	; 0x1de0 <RTC_AddOneSecond+0x10>
    1dde:	82 c0       	rjmp	.+260    	; 0x1ee4 <RTC_AddOneSecond+0x114>
		RTC.ss = 0;
    1de0:	10 92 15 01 	sts	0x0115, r1
		// notify com.c about the changed minute
		if (++RTC.mm >= 60) {
    1de4:	80 91 14 01 	lds	r24, 0x0114
    1de8:	8f 5f       	subi	r24, 0xFF	; 255
    1dea:	80 93 14 01 	sts	0x0114, r24
    1dee:	8c 33       	cpi	r24, 0x3C	; 60
    1df0:	08 f4       	brcc	.+2      	; 0x1df4 <RTC_AddOneSecond+0x24>
    1df2:	78 c0       	rjmp	.+240    	; 0x1ee4 <RTC_AddOneSecond+0x114>
			RTC.mm = 0;
    1df4:	10 92 14 01 	sts	0x0114, r1
			// add one hour
			if (++RTC.hh >= 24) {
    1df8:	80 91 13 01 	lds	r24, 0x0113
    1dfc:	8f 5f       	subi	r24, 0xFF	; 255
    1dfe:	80 93 13 01 	sts	0x0113, r24
    1e02:	88 31       	cpi	r24, 0x18	; 24
    1e04:	08 f4       	brcc	.+2      	; 0x1e08 <RTC_AddOneSecond+0x38>
    1e06:	43 c0       	rjmp	.+134    	; 0x1e8e <RTC_AddOneSecond+0xbe>
				RTC.hh = 0;
    1e08:	10 92 13 01 	sts	0x0113, r1
 *  \returns number of days for actual month (1-12) and year (0-255: 2000-2255)
 *
 ******************************************************************************/
static uint8_t RTC_DaysOfMonth()
{
    uint8_t dom = pgm_read_byte(&RTC_DayOfMonthTablePrgMem[RTC.MM-1]);
    1e0c:	20 91 11 01 	lds	r18, 0x0111
    1e10:	e2 2f       	mov	r30, r18
    1e12:	f0 e0       	ldi	r31, 0x00	; 0
    1e14:	e8 53       	subi	r30, 0x38	; 56
    1e16:	fe 4f       	sbci	r31, 0xFE	; 254
    1e18:	34 91       	lpm	r19, Z+
    if ((RTC.MM == 2)&&(!RTC_NoLeapyear()))
    1e1a:	22 30       	cpi	r18, 0x02	; 2
    1e1c:	41 f4       	brne	.+16     	; 0x1e2e <RTC_AddOneSecond+0x5e>
    1e1e:	80 91 10 01 	lds	r24, 0x0110
    1e22:	90 e0       	ldi	r25, 0x00	; 0
    1e24:	83 70       	andi	r24, 0x03	; 3
    1e26:	90 70       	andi	r25, 0x00	; 0
    1e28:	89 2b       	or	r24, r25
    1e2a:	09 f4       	brne	.+2      	; 0x1e2e <RTC_AddOneSecond+0x5e>
    1e2c:	3d e1       	ldi	r19, 0x1D	; 29
static void RTC_AddOneDay(void)
{
    uint8_t dom;
    // How many day has actual month
    dom = RTC_DaysOfMonth();
    if (++RTC.DD > dom) {                   // Next Month
    1e2e:	80 91 12 01 	lds	r24, 0x0112
    1e32:	8f 5f       	subi	r24, 0xFF	; 255
    1e34:	80 93 12 01 	sts	0x0112, r24
    1e38:	38 17       	cp	r19, r24
    1e3a:	90 f4       	brcc	.+36     	; 0x1e60 <RTC_AddOneSecond+0x90>
		RTC.DD = 1;
    1e3c:	91 e0       	ldi	r25, 0x01	; 1
    1e3e:	90 93 12 01 	sts	0x0112, r25
		if (++RTC.MM > 12) {                    // Next year
    1e42:	82 2f       	mov	r24, r18
    1e44:	8f 5f       	subi	r24, 0xFF	; 255
    1e46:	80 93 11 01 	sts	0x0111, r24
    1e4a:	8d 30       	cpi	r24, 0x0D	; 13
    1e4c:	38 f0       	brcs	.+14     	; 0x1e5c <RTC_AddOneSecond+0x8c>
			RTC.MM = 1;
    1e4e:	90 93 11 01 	sts	0x0111, r25
			RTC.YY++;
    1e52:	80 91 10 01 	lds	r24, 0x0110
    1e56:	8f 5f       	subi	r24, 0xFF	; 255
    1e58:	80 93 10 01 	sts	0x0110, r24
		}
		// Clear Daylight saving Flag
        RTC_DS=0;
    1e5c:	10 92 86 02 	sts	0x0286, r1
	}
    // next day of week
    RTC.DOW = (RTC.DOW %7)+1; // Monday = 1 Sat=7
    1e60:	80 91 16 01 	lds	r24, 0x0116
    1e64:	67 e0       	ldi	r22, 0x07	; 7
    1e66:	0e 94 04 1c 	call	0x3808	; 0x3808 <__udivmodqi4>
    1e6a:	9f 5f       	subi	r25, 0xFF	; 255
    1e6c:	90 93 16 01 	sts	0x0116, r25
	#if !defined(MASTER_CONFIG_H)
        // update hourbar
	   menu_update_hourbar((config.timer_mode==1)?RTC.DOW:0);
    1e70:	80 91 ac 02 	lds	r24, 0x02AC
    1e74:	81 30       	cpi	r24, 0x01	; 1
    1e76:	09 f0       	breq	.+2      	; 0x1e7a <RTC_AddOneSecond+0xaa>
    1e78:	90 e0       	ldi	r25, 0x00	; 0
    1e7a:	89 2f       	mov	r24, r25
    1e7c:	5f df       	rcall	.-322    	; 0x1d3c <RTC_DowTimerGetHourBar>
    1e7e:	60 93 b3 02 	sts	0x02B3, r22
    1e82:	70 93 b4 02 	sts	0x02B4, r23
    1e86:	80 93 b5 02 	sts	0x02B5, r24
    1e8a:	90 93 b6 02 	sts	0x02B6, r25
			if (++RTC.hh >= 24) {
				RTC.hh = 0;
				RTC_AddOneDay();
			}
			// start of summertime: March, 2:00:00 ?
			if ((RTC.MM==3)&&(RTC.hh==2)){
    1e8e:	90 91 11 01 	lds	r25, 0x0111
    1e92:	93 30       	cpi	r25, 0x03	; 3
    1e94:	79 f4       	brne	.+30     	; 0x1eb4 <RTC_AddOneSecond+0xe4>
    1e96:	80 91 13 01 	lds	r24, 0x0113
    1e9a:	82 30       	cpi	r24, 0x02	; 2
    1e9c:	19 f5       	brne	.+70     	; 0x1ee4 <RTC_AddOneSecond+0x114>
 *  \returns \ref true if actual date is last sunday in march or october
 *
 ******************************************************************************/
static bool RTC_IsLastSunday(void)
{
    if (RTC.DOW != 7){ // sunday ?
    1e9e:	80 91 16 01 	lds	r24, 0x0116
    1ea2:	87 30       	cpi	r24, 0x07	; 7
    1ea4:	f9 f4       	brne	.+62     	; 0x1ee4 <RTC_AddOneSecond+0x114>
				RTC_AddOneDay();
			}
			// start of summertime: March, 2:00:00 ?
			if ((RTC.MM==3)&&(RTC.hh==2)){
                // Last Sunday ?
                if (RTC_IsLastSunday()){
    1ea6:	80 91 12 01 	lds	r24, 0x0112
    1eaa:	89 31       	cpi	r24, 0x19	; 25
    1eac:	d8 f0       	brcs	.+54     	; 0x1ee4 <RTC_AddOneSecond+0x114>
                    RTC.hh++; // 2:00 -> 3:00
    1eae:	90 93 13 01 	sts	0x0113, r25
    1eb2:	08 95       	ret
                }
            }
			// end of summertime: October, 03:00, RTC_DS == 0
			if ((RTC.MM==10)&&(RTC.hh==3)&&(RTC_DS==0)){
    1eb4:	9a 30       	cpi	r25, 0x0A	; 10
    1eb6:	b1 f4       	brne	.+44     	; 0x1ee4 <RTC_AddOneSecond+0x114>
    1eb8:	80 91 13 01 	lds	r24, 0x0113
    1ebc:	83 30       	cpi	r24, 0x03	; 3
    1ebe:	91 f4       	brne	.+36     	; 0x1ee4 <RTC_AddOneSecond+0x114>
    1ec0:	80 91 86 02 	lds	r24, 0x0286
    1ec4:	88 23       	and	r24, r24
    1ec6:	71 f4       	brne	.+28     	; 0x1ee4 <RTC_AddOneSecond+0x114>
 *  \returns \ref true if actual date is last sunday in march or october
 *
 ******************************************************************************/
static bool RTC_IsLastSunday(void)
{
    if (RTC.DOW != 7){ // sunday ?
    1ec8:	80 91 16 01 	lds	r24, 0x0116
    1ecc:	87 30       	cpi	r24, 0x07	; 7
    1ece:	51 f4       	brne	.+20     	; 0x1ee4 <RTC_AddOneSecond+0x114>
                }
            }
			// end of summertime: October, 03:00, RTC_DS == 0
			if ((RTC.MM==10)&&(RTC.hh==3)&&(RTC_DS==0)){
                // Last Sunday ?
                if (RTC_IsLastSunday()){
    1ed0:	80 91 12 01 	lds	r24, 0x0112
    1ed4:	88 31       	cpi	r24, 0x18	; 24
    1ed6:	30 f0       	brcs	.+12     	; 0x1ee4 <RTC_AddOneSecond+0x114>
                    RTC.hh--; // 3:00 -> 2:00
    1ed8:	82 e0       	ldi	r24, 0x02	; 2
    1eda:	80 93 13 01 	sts	0x0113, r24
                    RTC_DS=1;
    1ede:	81 e0       	ldi	r24, 0x01	; 1
    1ee0:	80 93 86 02 	sts	0x0286, r24
    1ee4:	08 95       	ret

00001ee6 <RTC_SetDayOfWeek>:
	31+28+31+30+31+30+31+31+30,
    31+28+31+30+31+30+31+31+30+31,
	31+28+31+30+31+30+31+31+30+31+30};

static void RTC_SetDayOfWeek(void)
{
    1ee6:	0f 93       	push	r16
    1ee8:	1f 93       	push	r17
    1eea:	cf 93       	push	r28
    1eec:	df 93       	push	r29
    uint16_t day_of_year;
    uint16_t tmp_dow;

    // Day of year
    day_of_year = pgm_read_word(&(daysInYear[RTC.MM-1])) + RTC.DD;
    1eee:	80 91 11 01 	lds	r24, 0x0111
    1ef2:	21 e0       	ldi	r18, 0x01	; 1
    1ef4:	30 e0       	ldi	r19, 0x00	; 0
    1ef6:	28 1b       	sub	r18, r24
    1ef8:	31 09       	sbc	r19, r1
    1efa:	22 0f       	add	r18, r18
    1efc:	33 1f       	adc	r19, r19
    1efe:	ee 27       	eor	r30, r30
    1f00:	ff 27       	eor	r31, r31
    1f02:	e2 1b       	sub	r30, r18
    1f04:	f3 0b       	sbc	r31, r19
    1f06:	eb 52       	subi	r30, 0x2B	; 43
    1f08:	fe 4f       	sbci	r31, 0xFE	; 254
    1f0a:	c5 91       	lpm	r28, Z+
    1f0c:	d4 91       	lpm	r29, Z+
    1f0e:	90 91 12 01 	lds	r25, 0x0112
    1f12:	c9 0f       	add	r28, r25
    1f14:	d1 1d       	adc	r29, r1
    if (RTC.MM > 2) { // february
    1f16:	83 30       	cpi	r24, 0x03	; 3
    1f18:	40 f0       	brcs	.+16     	; 0x1f2a <RTC_SetDayOfWeek+0x44>
        if (! RTC_NoLeapyear() ){
    1f1a:	80 91 10 01 	lds	r24, 0x0110
    1f1e:	90 e0       	ldi	r25, 0x00	; 0
    1f20:	83 70       	andi	r24, 0x03	; 3
    1f22:	90 70       	andi	r25, 0x00	; 0
    1f24:	89 2b       	or	r24, r25
    1f26:	09 f4       	brne	.+2      	; 0x1f2a <RTC_SetDayOfWeek+0x44>
            day_of_year ++;
    1f28:	21 96       	adiw	r28, 0x01	; 1
        }
    }
    // calc weekday
    tmp_dow = RTC.YY + ((RTC.YY-1) / 4) - ((RTC.YY-1) / 100) + day_of_year;
    1f2a:	e0 91 10 01 	lds	r30, 0x0110
    1f2e:	f0 e0       	ldi	r31, 0x00	; 0
    1f30:	8f 01       	movw	r16, r30
    1f32:	01 50       	subi	r16, 0x01	; 1
    1f34:	10 40       	sbci	r17, 0x00	; 0
    // set DOW
    RTC.DOW = (uint8_t) ((tmp_dow + 5) % 7) +1;
    1f36:	c8 01       	movw	r24, r16
    1f38:	64 e0       	ldi	r22, 0x04	; 4
    1f3a:	70 e0       	ldi	r23, 0x00	; 0
    1f3c:	0e 94 31 1c 	call	0x3862	; 0x3862 <__divmodhi4>
    1f40:	9b 01       	movw	r18, r22
    1f42:	c8 01       	movw	r24, r16
    1f44:	6c e9       	ldi	r22, 0x9C	; 156
    1f46:	7f ef       	ldi	r23, 0xFF	; 255
    1f48:	0e 94 31 1c 	call	0x3862	; 0x3862 <__divmodhi4>
    1f4c:	26 0f       	add	r18, r22
    1f4e:	37 1f       	adc	r19, r23
    1f50:	2e 0f       	add	r18, r30
    1f52:	3f 1f       	adc	r19, r31
    1f54:	2b 5f       	subi	r18, 0xFB	; 251
    1f56:	3f 4f       	sbci	r19, 0xFF	; 255
    1f58:	c9 01       	movw	r24, r18
    1f5a:	8c 0f       	add	r24, r28
    1f5c:	9d 1f       	adc	r25, r29
    1f5e:	67 e0       	ldi	r22, 0x07	; 7
    1f60:	70 e0       	ldi	r23, 0x00	; 0
    1f62:	0e 94 1d 1c 	call	0x383a	; 0x383a <__udivmodhi4>
    1f66:	98 2f       	mov	r25, r24
    1f68:	9f 5f       	subi	r25, 0xFF	; 255
    1f6a:	90 93 16 01 	sts	0x0116, r25
    
    #if !defined(MASTER_CONFIG_H)
   	    menu_update_hourbar((config.timer_mode==1)?RTC.DOW:0);
    1f6e:	80 91 ac 02 	lds	r24, 0x02AC
    1f72:	81 30       	cpi	r24, 0x01	; 1
    1f74:	09 f0       	breq	.+2      	; 0x1f78 <RTC_SetDayOfWeek+0x92>
    1f76:	90 e0       	ldi	r25, 0x00	; 0
    1f78:	89 2f       	mov	r24, r25
    1f7a:	e0 de       	rcall	.-576    	; 0x1d3c <RTC_DowTimerGetHourBar>
    1f7c:	60 93 b3 02 	sts	0x02B3, r22
    1f80:	70 93 b4 02 	sts	0x02B4, r23
    1f84:	80 93 b5 02 	sts	0x02B5, r24
    1f88:	90 93 b6 02 	sts	0x02B6, r25
    #endif    
}
    1f8c:	df 91       	pop	r29
    1f8e:	cf 91       	pop	r28
    1f90:	1f 91       	pop	r17
    1f92:	0f 91       	pop	r16
    1f94:	08 95       	ret

00001f96 <RTC_SetYear>:
 *  set actual date
 *  \param year new value for year
 ******************************************************************************/
void RTC_SetYear(uint8_t year)
{
    RTC.YY = year;
    1f96:	80 93 10 01 	sts	0x0110, r24
    RTC_SetDayOfWeek();
}
    1f9a:	a5 cf       	rjmp	.-182    	; 0x1ee6 <RTC_SetDayOfWeek>

00001f9c <RTC_SetMonth>:
 *  set actual date
 *  \param month new value for month
 ******************************************************************************/
void RTC_SetMonth(int8_t month)
{
    RTC.MM = (uint8_t)(month+(-1+12))%12 + 1;
    1f9c:	85 5f       	subi	r24, 0xF5	; 245
    1f9e:	6c e0       	ldi	r22, 0x0C	; 12
    1fa0:	0e 94 04 1c 	call	0x3808	; 0x3808 <__udivmodqi4>
    1fa4:	9f 5f       	subi	r25, 0xFF	; 255
    1fa6:	90 93 11 01 	sts	0x0111, r25
    RTC_SetDayOfWeek();
}
    1faa:	9d cf       	rjmp	.-198    	; 0x1ee6 <RTC_SetDayOfWeek>

00001fac <RTC_SetDay>:
 *******************************************************************************
 *  set actual date
 *  \param day new value for day
 ******************************************************************************/
void RTC_SetDay(int8_t day)
{
    1fac:	28 2f       	mov	r18, r24
 *  \returns number of days for actual month (1-12) and year (0-255: 2000-2255)
 *
 ******************************************************************************/
static uint8_t RTC_DaysOfMonth()
{
    uint8_t dom = pgm_read_byte(&RTC_DayOfMonthTablePrgMem[RTC.MM-1]);
    1fae:	80 91 11 01 	lds	r24, 0x0111
    1fb2:	e8 2f       	mov	r30, r24
    1fb4:	f0 e0       	ldi	r31, 0x00	; 0
    1fb6:	e8 53       	subi	r30, 0x38	; 56
    1fb8:	fe 4f       	sbci	r31, 0xFE	; 254
    1fba:	64 91       	lpm	r22, Z+
    if ((RTC.MM == 2)&&(!RTC_NoLeapyear()))
    1fbc:	82 30       	cpi	r24, 0x02	; 2
    1fbe:	41 f4       	brne	.+16     	; 0x1fd0 <RTC_SetDay+0x24>
    1fc0:	80 91 10 01 	lds	r24, 0x0110
    1fc4:	90 e0       	ldi	r25, 0x00	; 0
    1fc6:	83 70       	andi	r24, 0x03	; 3
    1fc8:	90 70       	andi	r25, 0x00	; 0
    1fca:	89 2b       	or	r24, r25
    1fcc:	09 f4       	brne	.+2      	; 0x1fd0 <RTC_SetDay+0x24>
    1fce:	6d e1       	ldi	r22, 0x1D	; 29
 *  \param day new value for day
 ******************************************************************************/
void RTC_SetDay(int8_t day)
{
    uint8_t day_in_m = RTC_DaysOfMonth();
    RTC.DD = (uint8_t)(day+(-1+day_in_m))%day_in_m + 1;
    1fd0:	21 50       	subi	r18, 0x01	; 1
    1fd2:	82 2f       	mov	r24, r18
    1fd4:	86 0f       	add	r24, r22
    1fd6:	0e 94 04 1c 	call	0x3808	; 0x3808 <__udivmodqi4>
    1fda:	9f 5f       	subi	r25, 0xFF	; 255
    1fdc:	90 93 12 01 	sts	0x0112, r25
    RTC_SetDayOfWeek();
}
    1fe0:	82 cf       	rjmp	.-252    	; 0x1ee6 <RTC_SetDayOfWeek>

00001fe2 <RTC_Init>:
 *  \param  pFunc   pointer to callback function for DOW timer
 ******************************************************************************/
void RTC_Init(void)
{
    #if !defined(MASTER_CONFIG_H)
        TIMSK2 &= ~(1<<TOIE2);              // disable OCIE2A and TOIE2
    1fe2:	80 91 70 00 	lds	r24, 0x0070
    1fe6:	8e 7f       	andi	r24, 0xFE	; 254
    1fe8:	80 93 70 00 	sts	0x0070, r24
        ASSR = (1<<AS2);                    // Timer2 asynchronous operation
    1fec:	88 e0       	ldi	r24, 0x08	; 8
    1fee:	80 93 b6 00 	sts	0x00B6, r24
        TCNT2 = 0;                          // clear TCNT2A
    1ff2:	10 92 b2 00 	sts	0x00B2, r1
        TCCR2A |= TCCR2A_INIT;    // select precaler: 32.768 kHz / 128 =
    1ff6:	80 91 b0 00 	lds	r24, 0x00B0
    1ffa:	85 60       	ori	r24, 0x05	; 5
    1ffc:	80 93 b0 00 	sts	0x00B0, r24
                                            // => 1 sec between each overflow
    	
    	// wait for TCN2UB and TCR2UB to be cleared
        while((ASSR & (_BV(TCN2UB)|_BV(TCR2UB))) != 0);
    2000:	80 91 b6 00 	lds	r24, 0x00B6
    2004:	85 70       	andi	r24, 0x05	; 5
    2006:	e1 f7       	brne	.-8      	; 0x2000 <RTC_Init+0x1e>
    
        TIFR2 = 0xFF;                       // clear interrupt-flags
    2008:	8f ef       	ldi	r24, 0xFF	; 255
    200a:	87 bb       	out	0x17, r24	; 23
        TIMSK2 |= (1<<TOIE2);               // enable Timer2 overflow interrupt
    200c:	80 91 70 00 	lds	r24, 0x0070
    2010:	81 60       	ori	r24, 0x01	; 1
    2012:	80 93 70 00 	sts	0x0070, r24

    // day of week
    RTC_SetDayOfWeek();
    
    //! \note OCR2A register and interrupt is used in \ref keyboard.c
}
    2016:	67 cf       	rjmp	.-306    	; 0x1ee6 <RTC_SetDayOfWeek>

00002018 <RTC_DowTimerGet>:
 *      - 1 minute intervals supported
 *      - to deactivate timer: set value 0xfff
 *
 ******************************************************************************/
uint16_t RTC_DowTimerGet(rtc_dow_t dow, uint8_t slot, timermode_t *timermode)
{
    2018:	0f 93       	push	r16
    201a:	1f 93       	push	r17
    201c:	8a 01       	movw	r16, r20
    // to table format see to \ref ee_timers
    uint16_t raw=eeprom_timers_read_raw(timers_get_raw_index(dow,slot));
    201e:	88 0f       	add	r24, r24
    2020:	88 0f       	add	r24, r24
    2022:	88 0f       	add	r24, r24
    2024:	86 0f       	add	r24, r22
    2026:	73 d4       	rcall	.+2278   	; 0x290e <eeprom_timers_read_raw>
    2028:	9c 01       	movw	r18, r24
    *timermode = (timermode_t) (raw >> 12);
    202a:	83 2f       	mov	r24, r19
    202c:	82 95       	swap	r24
    202e:	8f 70       	andi	r24, 0x0F	; 15
    2030:	f8 01       	movw	r30, r16
    2032:	80 83       	st	Z, r24
    2034:	3f 70       	andi	r19, 0x0F	; 15
    return raw & 0xfff;
}
    2036:	c9 01       	movw	r24, r18
    2038:	1f 91       	pop	r17
    203a:	0f 91       	pop	r16
    203c:	08 95       	ret

0000203e <RTC_DowTimerSet>:
 *      - 1 minute intervals supported
 *      - to deactivate timer: set value 0xfff
 *
 ******************************************************************************/
bool RTC_DowTimerSet(rtc_dow_t dow, uint8_t slot, uint16_t time, timermode_t timermode)
{
    203e:	96 2f       	mov	r25, r22
    if (dow>=8) return false;
    2040:	88 30       	cpi	r24, 0x08	; 8
    2042:	b8 f4       	brcc	.+46     	; 0x2072 <RTC_DowTimerSet+0x34>
    if (slot>=RTC_TIMERS_PER_DOW) return false;
    2044:	68 30       	cpi	r22, 0x08	; 8
    2046:	a8 f4       	brcc	.+42     	; 0x2072 <RTC_DowTimerSet+0x34>
    if (timermode>temperature3) return false;
    2048:	24 30       	cpi	r18, 0x04	; 4
    204a:	98 f4       	brcc	.+38     	; 0x2072 <RTC_DowTimerSet+0x34>
    if (time>=60*25) time=0xfff;
    204c:	35 e0       	ldi	r19, 0x05	; 5
    204e:	4c 3d       	cpi	r20, 0xDC	; 220
    2050:	53 07       	cpc	r21, r19
    2052:	10 f0       	brcs	.+4      	; 0x2058 <RTC_DowTimerSet+0x1a>
    2054:	4f ef       	ldi	r20, 0xFF	; 255
    2056:	5f e0       	ldi	r21, 0x0F	; 15
    // to table format see to \ref ee_timers
    eeprom_timers_write(dow,slot,time | ((uint16_t)timermode<<12));
    2058:	88 0f       	add	r24, r24
    205a:	88 0f       	add	r24, r24
    205c:	88 0f       	add	r24, r24
    205e:	72 2f       	mov	r23, r18
    2060:	72 95       	swap	r23
    2062:	70 7f       	andi	r23, 0xF0	; 240
    2064:	60 e0       	ldi	r22, 0x00	; 0
    2066:	64 2b       	or	r22, r20
    2068:	75 2b       	or	r23, r21
    206a:	89 0f       	add	r24, r25
    206c:	76 d4       	rcall	.+2284   	; 0x295a <eeprom_timers_write_raw>
    206e:	81 e0       	ldi	r24, 0x01	; 1
    2070:	08 95       	ret
    return true;
    2072:	80 e0       	ldi	r24, 0x00	; 0
}
    2074:	08 95       	ret

00002076 <main>:

    //! Calibrate the internal RC Oszillator
    //! \todo test calibrate_rco();

    //! set Clock to 4 Mhz
    CLKPR = (1<<CLKPCE);            // prescaler change enable
    2076:	90 e8       	ldi	r25, 0x80	; 128
    2078:	90 93 61 00 	sts	0x0061, r25
    CLKPR = (1<<CLKPS0);            // prescaler = 2 (internal RC runs @ 8MHz)
    207c:	81 e0       	ldi	r24, 0x01	; 1
    207e:	80 93 61 00 	sts	0x0061, r24

    //! Disable Analog Comparator (power save)
    ACSR = (1<<ACD);
    2082:	90 bf       	out	0x30, r25	; 48

    //! Disable Digital input on PF0-7 (power save)
    DIDR0 = 0xFF;
    2084:	8f ef       	ldi	r24, 0xFF	; 255
    2086:	80 93 7e 00 	sts	0x007E, r24

    //! Power reduction mode
    power_down_ADC();
    208a:	8d e0       	ldi	r24, 0x0D	; 13
    208c:	80 93 64 00 	sts	0x0064, r24

    //! digital I/O port direction
    DDRG = (1<<PG3)|(1<<PG4); // PG3, PG4 Motor out
    2090:	88 e1       	ldi	r24, 0x18	; 24
    2092:	83 bb       	out	0x13, r24	; 19
    //! enable pullup on all inputs (keys and m_wheel)
    //! ATTENTION: PB0 & PB6 is input, but we will select it only for read
#if THERMOTRONIC==1
	PORTB = (1<<PB0)|(1<<PB1)|(1<<PB2)|(0<<PB4)|(0<<PB5);
#else
    PORTB = (0<<PB0)|(1<<PB1)|(1<<PB2)|(1<<PB3)|(0<<PB6);
    2094:	8e e0       	ldi	r24, 0x0E	; 14
    2096:	85 b9       	out	0x05, r24	; 5
    DDRB = (1<<PB0)|(1<<PB4)|(1<<PB7)|(1<<PB6); // PB4, PB7 Motor out
    2098:	81 ed       	ldi	r24, 0xD1	; 209
    209a:	84 b9       	out	0x04, r24	; 4
	PORTE|=(1<<PE3);
    DDRF = (1<<PF2); // PF2  activate tempsensor
    PORTF = 0xf5;

#else //HR20 without RFM
    DDRE = (1<<PE3)|(1<<PE1);  // PE3  activate lighteye
    209c:	8a e0       	ldi	r24, 0x0A	; 10
    209e:	8d b9       	out	0x0d, r24	; 13
    PORTE = (1<<PE2)|(1<<PE1)|(1<<PE0); // PE2 | TXD | RXD(pullup);
    20a0:	87 e0       	ldi	r24, 0x07	; 7
    20a2:	8e b9       	out	0x0e, r24	; 14
    DDRF = (1<<PF3);          // PF3  activate tempsensor
    20a4:	88 e0       	ldi	r24, 0x08	; 8
    20a6:	80 bb       	out	0x10, r24	; 16
    PORTF = 0xf3;
    20a8:	83 ef       	ldi	r24, 0xF3	; 243
    20aa:	81 bb       	out	0x11, r24	; 17
	PCMSK0=(1<<PCINT1);
    //! PCMSK1 for keyactions
    PCMSK1 = (1<<PCINT9)|(1<<PCINT10)|(1<<PCINT8)|(1<<PCINT12);
#else
    //! PCMSK1 for keyactions
    PCMSK1 = (1<<PCINT9)|(1<<PCINT10)|(1<<PCINT11)|(1<<PCINT13);
    20ac:	8e e2       	ldi	r24, 0x2E	; 46
    20ae:	80 93 6c 00 	sts	0x006C, r24
#endif

    //! activate PCINT0 + PCINT1
    EIMSK = (1<<PCIE1)|(1<<PCIE0);
    20b2:	80 ec       	ldi	r24, 0xC0	; 192
    20b4:	8d bb       	out	0x1d, r24	; 29

    //! Initialize the RTC
    RTC_Init();
    20b6:	95 df       	rcall	.-214    	; 0x1fe2 <RTC_Init>

	// press all keys on boot reload default eeprom values
    eeprom_config_init((PINB & (KBI_PROG | KBI_C | KBI_AUTO))==0);
    20b8:	83 b1       	in	r24, 0x03	; 3
    20ba:	90 e0       	ldi	r25, 0x00	; 0
    20bc:	8e 70       	andi	r24, 0x0E	; 14
    20be:	09 f4       	brne	.+2      	; 0x20c2 <main+0x4c>
    20c0:	91 e0       	ldi	r25, 0x01	; 1
    20c2:	89 2f       	mov	r24, r25
    20c4:	f9 d3       	rcall	.+2034   	; 0x28b8 <eeprom_config_init>
#if RFM
	crypto_init();
#endif

    //! Initialize the motor
    MOTOR_Init();
    20c6:	81 e0       	ldi	r24, 0x01	; 1
    20c8:	0e 94 3f 04 	call	0x87e	; 0x87e <MOTOR_updateCalibration>

    //1 Initialize the LCD
    LCD_Init();
    20cc:	0e 94 46 19 	call	0x328c	; 0x328c <LCD_Init>
	RFM_init();
	RFM_OFF();
#endif

	// init keyboard
    state_wheel_prev = ~PINB & (KBI_ROT1 | KBI_ROT2);
    20d0:	83 b1       	in	r24, 0x03	; 3
    20d2:	80 95       	com	r24
    20d4:	80 76       	andi	r24, 0x60	; 96
    20d6:	80 93 87 02 	sts	0x0287, r24
// __attribute__((noreturn)) mean that we not need prologue and epilogue for main()
		{
    //! initalization
    init();

	task=0;
    20da:	1e ba       	out	0x1e, r1	; 30

    //! Enable interrupts
    sei();
    20dc:	78 94       	sei

    /* check EEPROM layout */
    if (EEPROM_read((uint16_t)&ee_layout)!=EE_LAYOUT) {
    20de:	83 e0       	ldi	r24, 0x03	; 3
    20e0:	90 e0       	ldi	r25, 0x00	; 0
    20e2:	8e d3       	rcall	.+1820   	; 0x2800 <EEPROM_read>
    20e4:	85 31       	cpi	r24, 0x15	; 21
    20e6:	39 f0       	breq	.+14     	; 0x20f6 <main+0x80>
        LCD_PrintStringID(LCD_STRING_EEPr,LCD_MODE_ON);
    20e8:	83 e1       	ldi	r24, 0x13	; 19
    20ea:	63 e0       	ldi	r22, 0x03	; 3
    20ec:	0e 94 76 1a 	call	0x34ec	; 0x34ec <LCD_PrintStringID>
        task_lcd_update();
    20f0:	0e 94 f5 1a 	call	0x35ea	; 0x35ea <task_lcd_update>
    20f4:	ff cf       	rjmp	.-2      	; 0x20f4 <main+0x7e>
        for(;;) {;}  //fatal error, stop startup
    }
#if THERMOTRONIC != 1
	COM_init();
    20f6:	81 dc       	rcall	.-1790   	; 0x19fa <COM_init>
		DEBUG_BEFORE_SLEEP();
		asm volatile ("sei");	//  sequence from ATMEL datasheet chapter 6.8.
		asm volatile ("sleep");
		asm volatile ("nop");
		DEBUG_AFTER_SLEEP();
		SMCR = (1<<SM1)|(1<<SM0)|(0<<SE); // Power-save mode
    20f8:	26 e0       	ldi	r18, 0x06	; 6
    20fa:	d2 2e       	mov	r13, r18
		// go to sleep with ADC conversion start
	asm volatile ("cli");
        if (! task && ((ASSR & (_BV(OCR2UB)|_BV(TCN2UB)|_BV(TCR2UB))) == 0)) {  // ATmega169 datasheet chapter 17.8.1
  			// nothing to do, go to sleep
        	if(timer0_need_clock() || RS_need_clock()) {
			SMCR = (0<<SM1)|(0<<SM0)|(1<<SE); // Idle mode
    20fc:	01 e0       	ldi	r16, 0x01	; 1
		else {
    			if (sleep_with_ADC) {
    				SMCR = (0<<SM1)|(1<<SM0)|(1<<SE); // ADC noise reduction mode
			}
			else {
				    SMCR = (1<<SM1)|(1<<SM0)|(1<<SE); // Power-save mode
    20fe:	97 e0       	ldi	r25, 0x07	; 7
    2100:	f9 2e       	mov	r15, r25
        	if(timer0_need_clock() || RS_need_clock()) {
			SMCR = (0<<SM1)|(0<<SM0)|(1<<SE); // Idle mode
		}
		else {
    			if (sleep_with_ADC) {
    				SMCR = (0<<SM1)|(1<<SM0)|(1<<SE); // ADC noise reduction mode
    2102:	83 e0       	ldi	r24, 0x03	; 3
    2104:	e8 2e       	mov	r14, r24
    ****************************************************************************
    * main loop
    ***************************************************************************/
    for (;;){
		// go to sleep with ADC conversion start
	asm volatile ("cli");
    2106:	f8 94       	cli
        if (! task && ((ASSR & (_BV(OCR2UB)|_BV(TCN2UB)|_BV(TCR2UB))) == 0)) {  // ATmega169 datasheet chapter 17.8.1
    2108:	8e b3       	in	r24, 0x1e	; 30
    210a:	88 23       	and	r24, r24
    210c:	51 f5       	brne	.+84     	; 0x2162 <main+0xec>
    210e:	80 91 b6 00 	lds	r24, 0x00B6
    2112:	90 e0       	ldi	r25, 0x00	; 0
    2114:	87 70       	andi	r24, 0x07	; 7
    2116:	90 70       	andi	r25, 0x00	; 0
    2118:	89 2b       	or	r24, r25
    211a:	19 f5       	brne	.+70     	; 0x2162 <main+0xec>
  			// nothing to do, go to sleep
        	if(timer0_need_clock() || RS_need_clock()) {
    211c:	84 b5       	in	r24, 0x24	; 36
    211e:	90 e0       	ldi	r25, 0x00	; 0
    2120:	87 70       	andi	r24, 0x07	; 7
    2122:	90 70       	andi	r25, 0x00	; 0
    2124:	89 2b       	or	r24, r25
    2126:	21 f4       	brne	.+8      	; 0x2130 <main+0xba>
    2128:	80 91 c1 00 	lds	r24, 0x00C1
    212c:	88 71       	andi	r24, 0x18	; 24
    212e:	11 f0       	breq	.+4      	; 0x2134 <main+0xbe>
			SMCR = (0<<SM1)|(0<<SM0)|(1<<SE); // Idle mode
    2130:	03 bf       	out	0x33, r16	; 51
    2132:	07 c0       	rjmp	.+14     	; 0x2142 <main+0xcc>
		}
		else {
    			if (sleep_with_ADC) {
    2134:	80 91 1f 02 	lds	r24, 0x021F
    2138:	88 23       	and	r24, r24
    213a:	11 f0       	breq	.+4      	; 0x2140 <main+0xca>
    				SMCR = (0<<SM1)|(1<<SM0)|(1<<SE); // ADC noise reduction mode
    213c:	e3 be       	out	0x33, r14	; 51
    213e:	01 c0       	rjmp	.+2      	; 0x2142 <main+0xcc>
			}
			else {
				    SMCR = (1<<SM1)|(1<<SM0)|(1<<SE); // Power-save mode
    2140:	f3 be       	out	0x33, r15	; 51
               		}
            	}

		if (sleep_with_ADC) {
    2142:	80 91 1f 02 	lds	r24, 0x021F
    2146:	88 23       	and	r24, r24
    2148:	39 f0       	breq	.+14     	; 0x2158 <main+0xe2>
			sleep_with_ADC=false;
    214a:	10 92 1f 02 	sts	0x021F, r1
			// start conversions
			ADCSRA |= (1<<ADSC);
    214e:	80 91 7a 00 	lds	r24, 0x007A
    2152:	80 64       	ori	r24, 0x40	; 64
    2154:	80 93 7a 00 	sts	0x007A, r24
		}

		DEBUG_BEFORE_SLEEP();
		asm volatile ("sei");	//  sequence from ATMEL datasheet chapter 6.8.
    2158:	78 94       	sei
		asm volatile ("sleep");
    215a:	88 95       	sleep
		asm volatile ("nop");
    215c:	00 00       	nop
		DEBUG_AFTER_SLEEP();
		SMCR = (1<<SM1)|(1<<SM0)|(0<<SE); // Power-save mode
    215e:	d3 be       	out	0x33, r13	; 51
    2160:	01 c0       	rjmp	.+2      	; 0x2164 <main+0xee>
	}
	else {
		asm volatile ("sei");
    2162:	78 94       	sei
		continue; // on most case we have only 1 task, improve time to sleep
	}
	#endif

        // update LCD task
	if (task & TASK_LCD) {
    2164:	f3 9b       	sbis	0x1e, 3	; 30
    2166:	04 c0       	rjmp	.+8      	; 0x2170 <main+0xfa>
		task&=~TASK_LCD;
    2168:	f3 98       	cbi	0x1e, 3	; 30
		task_lcd_update();
    216a:	0e 94 f5 1a 	call	0x35ea	; 0x35ea <task_lcd_update>
    216e:	cb cf       	rjmp	.-106    	; 0x2106 <main+0x90>
		continue; // on most case we have only 1 task, improve time to sleep
	}

	if (task & TASK_ADC) {
    2170:	f2 9b       	sbis	0x1e, 2	; 30
    2172:	03 c0       	rjmp	.+6      	; 0x217a <main+0x104>
		task&=~TASK_ADC;
    2174:	f2 98       	cbi	0x1e, 2	; 30
		if (!task_ADC()) {
    2176:	3c d2       	rcall	.+1144   	; 0x25f0 <task_ADC>
    2178:	c6 cf       	rjmp	.-116    	; 0x2106 <main+0x90>
        	}
		continue; // on most case we have only 1 task, improve time to sleep
	}

        // communication
	if (task & TASK_COM) {
    217a:	f6 9b       	sbis	0x1e, 6	; 30
    217c:	03 c0       	rjmp	.+6      	; 0x2184 <main+0x10e>
		task&=~TASK_COM;
    217e:	f6 98       	cbi	0x1e, 6	; 30
		COM_command_parse();
    2180:	4c d9       	rcall	.-3432   	; 0x141a <COM_command_parse>
    2182:	c1 cf       	rjmp	.-126    	; 0x2106 <main+0x90>
		continue; // on most case we have only 1 task, improve time to sleep
	}

        // motor stop
        if (task & TASK_MOTOR_STOP) {
    2184:	f5 9b       	sbis	0x1e, 5	; 30
    2186:	04 c0       	rjmp	.+8      	; 0x2190 <main+0x11a>
        	task&=~TASK_MOTOR_STOP;
    2188:	f5 98       	cbi	0x1e, 5	; 30
            	MOTOR_timer_stop();
    218a:	0e 94 a9 03 	call	0x752	; 0x752 <MOTOR_timer_stop>
    218e:	bb cf       	rjmp	.-138    	; 0x2106 <main+0x90>
		continue; // on most case we have only 1 task, improve time to sleep
        }

	//! check keyboard and set keyboards events
	if (task & TASK_KB) {
    2190:	f0 9b       	sbis	0x1e, 0	; 30
    2192:	02 c0       	rjmp	.+4      	; 0x2198 <main+0x122>
		task&=~TASK_KB;
    2194:	f0 98       	cbi	0x1e, 0	; 30
		task_keyboard();
    2196:	3b d1       	rcall	.+630    	; 0x240e <task_keyboard>
	}

	if (task & TASK_RTC) {
    2198:	f1 9b       	sbis	0x1e, 1	; 30
    219a:	7b c0       	rjmp	.+246    	; 0x2292 <main+0x21c>
        	task&=~TASK_RTC;
    219c:	f1 98       	cbi	0x1e, 1	; 30
		#if (HW_WINDOW_DETECTION)
			PORTE |= _BV(PE2); // enable pull-up
    219e:	72 9a       	sbi	0x0e, 2	; 14
		#endif
           	if (RTC_timer_done&_BV(RTC_TIMER_RTC))
    21a0:	80 91 16 02 	lds	r24, 0x0216
    21a4:	87 ff       	sbrs	r24, 7
    21a6:	21 c0       	rjmp	.+66     	; 0x21ea <main+0x174>
           	{
                	RTC_AddOneSecond();
    21a8:	13 de       	rcall	.-986    	; 0x1dd0 <RTC_AddOneSecond>
			wheel_tick_time++;
    21aa:	90 91 72 02 	lds	r25, 0x0272
    21ae:	9f 5f       	subi	r25, 0xFF	; 255
    21b0:	90 93 72 02 	sts	0x0272, r25
			CTL_mode_changed_timer++;
    21b4:	80 91 35 01 	lds	r24, 0x0135
    21b8:	8f 5f       	subi	r24, 0xFF	; 255
    21ba:	80 93 35 01 	sts	0x0135, r24
			if (((wheel_tick_time == 2)) && wheel_tick_counter){
    21be:	92 30       	cpi	r25, 0x02	; 2
    21c0:	39 f4       	brne	.+14     	; 0x21d0 <main+0x15a>
    21c2:	80 91 71 02 	lds	r24, 0x0271
    21c6:	88 23       	and	r24, r24
    21c8:	19 f0       	breq	.+6      	; 0x21d0 <main+0x15a>
				COM_send_wheel_event(wheel_tick_counter);
    21ca:	07 dc       	rcall	.-2034   	; 0x19da <COM_send_wheel_event>
				wheel_tick_counter=0;
    21cc:	10 92 71 02 	sts	0x0271, r1
			}
			if (CTL_mode_changed && (CTL_mode_changed_timer==7)){
    21d0:	80 91 34 01 	lds	r24, 0x0134
    21d4:	88 23       	and	r24, r24
    21d6:	49 f0       	breq	.+18     	; 0x21ea <main+0x174>
    21d8:	80 91 35 01 	lds	r24, 0x0135
    21dc:	87 30       	cpi	r24, 0x07	; 7
    21de:	29 f4       	brne	.+10     	; 0x21ea <main+0x174>
				COM_send_mode_event(CTL_mode_auto);
    21e0:	80 91 0b 01 	lds	r24, 0x010B
    21e4:	eb db       	rcall	.-2090   	; 0x19bc <COM_send_mode_event>
				CTL_mode_changed=0;
    21e6:	10 92 34 01 	sts	0x0134, r1
			}
            	}
            	if (RTC_timer_done&(_BV(RTC_TIMER_OVF)|_BV(RTC_TIMER_RTC)))
    21ea:	90 91 16 02 	lds	r25, 0x0216
    21ee:	89 2f       	mov	r24, r25
    21f0:	81 78       	andi	r24, 0x81	; 129
    21f2:	09 f4       	brne	.+2      	; 0x21f6 <main+0x180>
    21f4:	4e c0       	rjmp	.+156    	; 0x2292 <main+0x21c>
            	{
                	cli();
    21f6:	f8 94       	cli
			RTC_timer_done&=~(_BV(RTC_TIMER_OVF)|_BV(RTC_TIMER_RTC)); 
    21f8:	9e 77       	andi	r25, 0x7E	; 126
    21fa:	90 93 16 02 	sts	0x0216, r25
			sei();
    21fe:	78 94       	sei
                	#if (DEBUG_PRINT_RTC_TICKS)
                		COM_putchar('*');
                    		COM_flush();
                	#endif
                	bool minute=(RTC_GetSecond()==0);
    2200:	10 e0       	ldi	r17, 0x00	; 0
    2202:	80 91 15 01 	lds	r24, 0x0115
    2206:	88 23       	and	r24, r24
    2208:	09 f4       	brne	.+2      	; 0x220c <main+0x196>
    220a:	11 e0       	ldi	r17, 0x01	; 1
                	CTL_update(minute);
    220c:	81 2f       	mov	r24, r17
    220e:	0e 94 40 05 	call	0xa80	; 0xa80 <CTL_update>
                	if (minute) {
    2212:	11 23       	and	r17, r17
    2214:	b1 f0       	breq	.+44     	; 0x2242 <main+0x1cc>
				COM_send_error_event(CTL_error);
    2216:	80 91 37 01 	lds	r24, 0x0137
    221a:	90 e0       	ldi	r25, 0x00	; 0
    221c:	9e db       	rcall	.-2244   	; 0x195a <COM_send_error_event>
                		if (((CTL_error &  (CTL_ERR_BATT_LOW | CTL_ERR_BATT_WARNING)) == 0) && (RTC_GetDayOfWeek()==6)
    221e:	80 91 37 01 	lds	r24, 0x0137
    2222:	80 7c       	andi	r24, 0xC0	; 192
    2224:	71 f4       	brne	.+28     	; 0x2242 <main+0x1cc>
    2226:	80 91 16 01 	lds	r24, 0x0116
    222a:	86 30       	cpi	r24, 0x06	; 6
    222c:	51 f4       	brne	.+20     	; 0x2242 <main+0x1cc>
    222e:	80 91 13 01 	lds	r24, 0x0113
    2232:	8a 30       	cpi	r24, 0x0A	; 10
    2234:	31 f4       	brne	.+12     	; 0x2242 <main+0x1cc>
    2236:	80 91 14 01 	lds	r24, 0x0114
    223a:	88 23       	and	r24, r24
    223c:	11 f4       	brne	.+4      	; 0x2242 <main+0x1cc>
	    				    && (RTC_GetHour()==10) && (RTC_GetMinute()==0)) {
	        	                // every saturday 10:00AM
        		                // TODO openHR: improve this code!
                	        // valve protection / CyCL
                	        MOTOR_updateCalibration(0);
    223e:	0e 94 3f 04 	call	0x87e	; 0x87e <MOTOR_updateCalibration>
					wirelessTimerCase = WL_TIMER_SYNC;
                        		RTC_timer_set(RTC_TIMER_RFM, WLTIME_SYNC);
				}
                    	}
                	#endif
			if (bat_average>0) {
    2242:	80 91 24 02 	lds	r24, 0x0224
    2246:	90 91 25 02 	lds	r25, 0x0225
    224a:	18 16       	cp	r1, r24
    224c:	19 06       	cpc	r1, r25
    224e:	3c f4       	brge	.+14     	; 0x225e <main+0x1e8>
				MOTOR_updateCalibration(mont_contact_pooling());
    2250:	a0 d0       	rcall	.+320    	; 0x2392 <mont_contact_pooling>
    2252:	0e 94 3f 04 	call	0x87e	; 0x87e <MOTOR_updateCalibration>
				MOTOR_Goto(valve_wanted);
    2256:	80 91 84 02 	lds	r24, 0x0284
    225a:	0e 94 04 02 	call	0x408	; 0x408 <MOTOR_Goto>
                	}
			task_keyboard_long_press_detect();
    225e:	3d d0       	rcall	.+122    	; 0x22da <task_keyboard_long_press_detect>
			if ((MOTOR_Dir==stop) || (config.allow_ADC_during_motor)){
    2260:	80 91 81 02 	lds	r24, 0x0281
    2264:	88 23       	and	r24, r24
    2266:	21 f0       	breq	.+8      	; 0x2270 <main+0x1fa>
    2268:	80 91 af 02 	lds	r24, 0x02AF
    226c:	88 23       	and	r24, r24
    226e:	09 f0       	breq	.+2      	; 0x2272 <main+0x1fc>
				start_task_ADC();
    2270:	ac d1       	rcall	.+856    	; 0x25ca <start_task_ADC>
			}
			if (menu_auto_update_timeout>=0) {
    2272:	80 91 19 01 	lds	r24, 0x0119
    2276:	87 fd       	sbrc	r24, 7
    2278:	03 c0       	rjmp	.+6      	; 0x2280 <main+0x20a>
				menu_auto_update_timeout--;
    227a:	81 50       	subi	r24, 0x01	; 1
    227c:	80 93 19 01 	sts	0x0119, r24
	                }
        	        menu_view(false); // TODO openHR: move it, it is wrong place
    2280:	80 e0       	ldi	r24, 0x00	; 0
    2282:	a4 d3       	rcall	.+1864   	; 0x29cc <menu_view>
        	        LCD_Update(); // TODO openHR: move it, it is wrong place
    2284:	80 91 e4 00 	lds	r24, 0x00E4
    2288:	88 60       	ori	r24, 0x08	; 8
    228a:	80 93 e4 00 	sts	0x00E4, r24
    228e:	00 93 7a 02 	sts	0x027A, r16
	        #endif
        	// do not use continue here (menu_auto_update_timeout==0)
        }

	// menu state machine
	if (kb_events || (menu_auto_update_timeout==0)) {
    2292:	80 91 18 02 	lds	r24, 0x0218
    2296:	90 91 19 02 	lds	r25, 0x0219
    229a:	89 2b       	or	r24, r25
    229c:	21 f4       	brne	.+8      	; 0x22a6 <main+0x230>
    229e:	80 91 19 01 	lds	r24, 0x0119
    22a2:	88 23       	and	r24, r24
    22a4:	89 f4       	brne	.+34     	; 0x22c8 <main+0x252>
        	bool update = menu_controller(false);
    22a6:	80 e0       	ldi	r24, 0x00	; 0
    22a8:	63 d5       	rcall	.+2758   	; 0x2d70 <menu_controller>
    22aa:	18 2f       	mov	r17, r24
        	if (update) {
    22ac:	88 23       	and	r24, r24
    22ae:	11 f0       	breq	.+4      	; 0x22b4 <main+0x23e>
               		menu_controller(true); // menu updated, call it again
    22b0:	81 e0       	ldi	r24, 0x01	; 1
    22b2:	5e d5       	rcall	.+2748   	; 0x2d70 <menu_controller>
           	}
           	menu_view(update); // TODO openHR: move it, it is wrong place
    22b4:	81 2f       	mov	r24, r17
    22b6:	8a d3       	rcall	.+1812   	; 0x29cc <menu_view>
	   	LCD_Update(); // TODO openHR: move it, it is wrong place
    22b8:	80 91 e4 00 	lds	r24, 0x00E4
    22bc:	88 60       	ori	r24, 0x08	; 8
    22be:	80 93 e4 00 	sts	0x00E4, r24
    22c2:	00 93 7a 02 	sts	0x027A, r16
    22c6:	1f cf       	rjmp	.-450    	; 0x2106 <main+0x90>
		continue; // on most case we have only 1 task, improve time to sleep
	}

        // update motor PWM
        if (task & TASK_MOTOR_PULSE) {
    22c8:	f4 9b       	sbis	0x1e, 4	; 30
    22ca:	1d cf       	rjmp	.-454    	; 0x2106 <main+0x90>
        	task&=~TASK_MOTOR_PULSE;
    22cc:	f4 98       	cbi	0x1e, 4	; 30
		MOTOR_updateCalibration(mont_contact_pooling());
    22ce:	61 d0       	rcall	.+194    	; 0x2392 <mont_contact_pooling>
    22d0:	0e 94 3f 04 	call	0x87e	; 0x87e <MOTOR_updateCalibration>
		MOTOR_timer_pulse();
    22d4:	0e 94 50 02 	call	0x4a0	; 0x4a0 <MOTOR_timer_pulse>
    22d8:	16 cf       	rjmp	.-468    	; 0x2106 <main+0x90>

000022da <task_keyboard_long_press_detect>:
 *
 *  \note
 ******************************************************************************/

void task_keyboard_long_press_detect(void) {
	if (! state_front_prev) {
    22da:	90 91 1c 02 	lds	r25, 0x021C
    22de:	99 23       	and	r25, r25
    22e0:	a1 f4       	brne	.+40     	; 0x230a <task_keyboard_long_press_detect+0x30>
		if (++long_quiet == 0) {
    22e2:	80 91 1e 02 	lds	r24, 0x021E
    22e6:	8f 5f       	subi	r24, 0xFF	; 255
    22e8:	80 93 1e 02 	sts	0x021E, r24
    22ec:	88 23       	and	r24, r24
    22ee:	21 f4       	brne	.+8      	; 0x22f8 <task_keyboard_long_press_detect+0x1e>
			// overload protection, nothing to do, event was generated previous
			long_quiet--;
    22f0:	8f ef       	ldi	r24, 0xFF	; 255
    22f2:	80 93 1e 02 	sts	0x021E, r24
    22f6:	08 95       	ret
			return;
		}
		if (long_quiet == LONG_QUIET_THLD) {
    22f8:	84 31       	cpi	r24, 0x14	; 20
    22fa:	09 f0       	breq	.+2      	; 0x22fe <task_keyboard_long_press_detect+0x24>
    22fc:	49 c0       	rjmp	.+146    	; 0x2390 <task_keyboard_long_press_detect+0xb6>
			kb_events |= KB_EVENT_NONE_LONG;
    22fe:	80 91 18 02 	lds	r24, 0x0218
    2302:	90 91 19 02 	lds	r25, 0x0219
    2306:	90 62       	ori	r25, 0x20	; 32
    2308:	35 c0       	rjmp	.+106    	; 0x2374 <task_keyboard_long_press_detect+0x9a>
		}
	} else { // if (! state_front_prev)

		if (++long_press == 0) {
    230a:	80 91 1d 02 	lds	r24, 0x021D
    230e:	8f 5f       	subi	r24, 0xFF	; 255
    2310:	80 93 1d 02 	sts	0x021D, r24
    2314:	88 23       	and	r24, r24
    2316:	21 f4       	brne	.+8      	; 0x2320 <task_keyboard_long_press_detect+0x46>
			// overload protection, nothing to do, event was generated previous
			long_press--;
    2318:	8f ef       	ldi	r24, 0xFF	; 255
    231a:	80 93 1d 02 	sts	0x021D, r24
    231e:	08 95       	ret
			return;
		}
		if (long_press == LONG_PRESS_THLD) {
    2320:	84 30       	cpi	r24, 0x04	; 4
    2322:	b1 f5       	brne	.+108    	; 0x2390 <task_keyboard_long_press_detect+0xb6>
			switch (state_front_prev) {
    2324:	98 30       	cpi	r25, 0x08	; 8
    2326:	d1 f0       	breq	.+52     	; 0x235c <task_keyboard_long_press_detect+0x82>
    2328:	99 30       	cpi	r25, 0x09	; 9
    232a:	28 f4       	brcc	.+10     	; 0x2336 <task_keyboard_long_press_detect+0x5c>
    232c:	92 30       	cpi	r25, 0x02	; 2
    232e:	79 f0       	breq	.+30     	; 0x234e <task_keyboard_long_press_detect+0x74>
    2330:	94 30       	cpi	r25, 0x04	; 4
    2332:	71 f5       	brne	.+92     	; 0x2390 <task_keyboard_long_press_detect+0xb6>
    2334:	05 c0       	rjmp	.+10     	; 0x2340 <task_keyboard_long_press_detect+0x66>
    2336:	9a 30       	cpi	r25, 0x0A	; 10
    2338:	c1 f0       	breq	.+48     	; 0x236a <task_keyboard_long_press_detect+0x90>
    233a:	9e 30       	cpi	r25, 0x0E	; 14
    233c:	49 f5       	brne	.+82     	; 0x2390 <task_keyboard_long_press_detect+0xb6>
    233e:	1f c0       	rjmp	.+62     	; 0x237e <task_keyboard_long_press_detect+0xa4>
			case KBI_PROG:
				kb_events |= KB_EVENT_PROG_LONG | KB_EVENT_PROG_REWOKE;
    2340:	80 91 18 02 	lds	r24, 0x0218
    2344:	90 91 19 02 	lds	r25, 0x0219
    2348:	80 62       	ori	r24, 0x20	; 32
    234a:	91 60       	ori	r25, 0x01	; 1
    234c:	13 c0       	rjmp	.+38     	; 0x2374 <task_keyboard_long_press_detect+0x9a>
				break;
			case KBI_C:
				kb_events |= KB_EVENT_C_LONG | KB_EVENT_C_REWOKE;
    234e:	80 91 18 02 	lds	r24, 0x0218
    2352:	90 91 19 02 	lds	r25, 0x0219
    2356:	80 64       	ori	r24, 0x40	; 64
    2358:	92 60       	ori	r25, 0x02	; 2
    235a:	0c c0       	rjmp	.+24     	; 0x2374 <task_keyboard_long_press_detect+0x9a>
				break;
			case KBI_AUTO:
				kb_events |= KB_EVENT_AUTO_LONG | KB_EVENT_AUTO_REWOKE;
    235c:	80 91 18 02 	lds	r24, 0x0218
    2360:	90 91 19 02 	lds	r25, 0x0219
    2364:	80 68       	ori	r24, 0x80	; 128
    2366:	94 60       	ori	r25, 0x04	; 4
    2368:	05 c0       	rjmp	.+10     	; 0x2374 <task_keyboard_long_press_detect+0x9a>
				break;
			case KBI_AUTO | KBI_C:
				kb_events |= KB_EVENT_LOCK_LONG;
    236a:	80 91 18 02 	lds	r24, 0x0218
    236e:	90 91 19 02 	lds	r25, 0x0219
    2372:	98 60       	ori	r25, 0x08	; 8
    2374:	90 93 19 02 	sts	0x0219, r25
    2378:	80 93 18 02 	sts	0x0218, r24
    237c:	08 95       	ret
				break;
			case KBI_PROG | KBI_C | KBI_AUTO:
				kb_events |= KB_EVENT_ALL_LONG;
    237e:	80 91 18 02 	lds	r24, 0x0218
    2382:	90 91 19 02 	lds	r25, 0x0219
    2386:	90 61       	ori	r25, 0x10	; 16
    2388:	90 93 19 02 	sts	0x0219, r25
    238c:	80 93 18 02 	sts	0x0218, r24
    2390:	08 95       	ret

00002392 <mont_contact_pooling>:
bool mont_contact_pooling(void){
#if THERMOTRONIC || DEBUG_IGNORE_MONT_CONTACT
	return 1; //no contact - exit!
#else
   bool mont_contact;
    enable_mont_input();
    2392:	20 98       	cbi	0x04, 0	; 4
    2394:	28 9a       	sbi	0x05, 0	; 5
    nop(); nop();
    2396:	00 00       	nop
    2398:	00 00       	nop
    // crazy order of instructions, but we need any instructions
    // between PORTB setting and reading PINB due to AVR design
    #if DEBUG_IGNORE_MONT_CONTACT==1
        mont_contact= 1;
    #else
        mont_contact = ~PINB & (KBI_MONT | KBI_PROG | KBI_C);
    239a:	83 b1       	in	r24, 0x03	; 3
    #endif
      // low active
    disable_mont_input();
    239c:	28 98       	cbi	0x05, 0	; 5
    239e:	20 9a       	sbi	0x04, 0	; 4
    if (mont_contact & KBI_MONT) { 
    23a0:	80 95       	com	r24
    23a2:	87 70       	andi	r24, 0x07	; 7
    23a4:	90 91 37 01 	lds	r25, 0x0137
    23a8:	80 ff       	sbrs	r24, 0
    23aa:	0d c0       	rjmp	.+26     	; 0x23c6 <mont_contact_pooling+0x34>
        CTL_error |=  CTL_ERR_MONTAGE;
    23ac:	94 60       	ori	r25, 0x04	; 4
    23ae:	90 93 37 01 	sts	0x0137, r25
		sumError=0;
    23b2:	10 92 38 01 	sts	0x0138, r1
    23b6:	10 92 39 01 	sts	0x0139, r1
    23ba:	10 92 3a 01 	sts	0x013A, r1
    23be:	10 92 3b 01 	sts	0x013B, r1
    23c2:	80 e0       	ldi	r24, 0x00	; 0
    23c4:	08 95       	ret
        return 0;
    } else {
        CTL_error &= ~CTL_ERR_MONTAGE;
    23c6:	9b 7f       	andi	r25, 0xFB	; 251
    23c8:	90 93 37 01 	sts	0x0137, r25
        if (mont_contact & KBI_C) return 2;
    23cc:	81 ff       	sbrs	r24, 1
    23ce:	02 c0       	rjmp	.+4      	; 0x23d4 <mont_contact_pooling+0x42>
    23d0:	82 e0       	ldi	r24, 0x02	; 2
    23d2:	08 95       	ret
        if (mont_contact & KBI_PROG) return 3;
    23d4:	82 fd       	sbrc	r24, 2
    23d6:	02 c0       	rjmp	.+4      	; 0x23dc <mont_contact_pooling+0x4a>
    23d8:	81 e0       	ldi	r24, 0x01	; 1
    23da:	08 95       	ret
    23dc:	83 e0       	ldi	r24, 0x03	; 3
        return 1;
    }
#endif
}
    23de:	08 95       	ret

000023e0 <__vector_3>:
 * Interrupt Routine
 *
 *  - create task for keyboard scan and wake up
 *  - read keyboard status
 ******************************************************************************/
ISR(PCINT1_vect){
    23e0:	1f 92       	push	r1
    23e2:	0f 92       	push	r0
    23e4:	0f b6       	in	r0, 0x3f	; 63
    23e6:	0f 92       	push	r0
    23e8:	11 24       	eor	r1, r1
    23ea:	8f 93       	push	r24
    enable_rot2_input();
    23ec:	26 98       	cbi	0x04, 6	; 4
    23ee:	2e 9a       	sbi	0x05, 6	; 5
    task |= TASK_KB;
    23f0:	f0 9a       	sbi	0x1e, 0	; 30
    asm volatile ("nop");
    23f2:	00 00       	nop

    // crazy oder of instructions, bud we need any instructions
    // between PORTB setting and reading PINB due to AVR design
    keys = ~PINB
    23f4:	83 b1       	in	r24, 0x03	; 3
    23f6:	80 95       	com	r24
    23f8:	8e 76       	andi	r24, 0x6E	; 110
    23fa:	80 93 1a 02 	sts	0x021A, r24
      & (KBI_C | KBI_PROG | KBI_AUTO | KBI_ROT1 | KBI_ROT2); 
      // low active

    disable_rot2_input();
    23fe:	2e 98       	cbi	0x05, 6	; 5
    2400:	26 9a       	sbi	0x04, 6	; 4
}
    2402:	8f 91       	pop	r24
    2404:	0f 90       	pop	r0
    2406:	0f be       	out	0x3f, r0	; 63
    2408:	0f 90       	pop	r0
    240a:	1f 90       	pop	r1
    240c:	18 95       	reti

0000240e <task_keyboard>:
 *  Recognize keypress and wheel
 *
 *  \note
 ******************************************************************************/

void task_keyboard(void) {
    240e:	1f 93       	push	r17

 
 {	// wheel
	uint8_t wheel= keys & (KBI_ROT1 | KBI_ROT2);
    2410:	20 91 1a 02 	lds	r18, 0x021A
    2414:	20 76       	andi	r18, 0x60	; 96
	if ((wheel ^ state_wheel_prev) & KBI_ROT1) {	//only ROT1 have interrupt, change detection
    2416:	80 91 87 02 	lds	r24, 0x0287
    241a:	82 27       	eor	r24, r18
    241c:	85 ff       	sbrs	r24, 5
    241e:	17 c0       	rjmp	.+46     	; 0x244e <task_keyboard+0x40>
		if ((wheel == 0) || (wheel == (KBI_ROT1|KBI_ROT2))) {
    2420:	22 23       	and	r18, r18
    2422:	11 f0       	breq	.+4      	; 0x2428 <task_keyboard+0x1a>
    2424:	20 36       	cpi	r18, 0x60	; 96
    2426:	31 f4       	brne	.+12     	; 0x2434 <task_keyboard+0x26>
			kb_events |= KB_EVENT_WHEEL_MINUS;
    2428:	80 91 18 02 	lds	r24, 0x0218
    242c:	90 91 19 02 	lds	r25, 0x0219
    2430:	82 60       	ori	r24, 0x02	; 2
    2432:	05 c0       	rjmp	.+10     	; 0x243e <task_keyboard+0x30>
			long_quiet = 0;
		} else {
			kb_events |= KB_EVENT_WHEEL_PLUS;
    2434:	80 91 18 02 	lds	r24, 0x0218
    2438:	90 91 19 02 	lds	r25, 0x0219
    243c:	81 60       	ori	r24, 0x01	; 1
    243e:	90 93 19 02 	sts	0x0219, r25
    2442:	80 93 18 02 	sts	0x0218, r24
			long_quiet = 0;
    2446:	10 92 1e 02 	sts	0x021E, r1
		}
		state_wheel_prev = wheel;
    244a:	20 93 87 02 	sts	0x0287, r18
	}
 } // wheel
 { // other keys
 	uint8_t front = keys & ( KBI_PROG | KBI_C | KBI_AUTO);
    244e:	10 91 1a 02 	lds	r17, 0x021A
    2452:	1e 70       	andi	r17, 0x0E	; 14
	if (front != state_front_prev) {
    2454:	20 91 1c 02 	lds	r18, 0x021C
    2458:	12 17       	cp	r17, r18
    245a:	09 f4       	brne	.+2      	; 0x245e <task_keyboard+0x50>
    245c:	5e c0       	rjmp	.+188    	; 0x251a <task_keyboard+0x10c>
		if (front && (state_front_prev == 0) && kb_timeout) {
    245e:	11 23       	and	r17, r17
    2460:	21 f1       	breq	.+72     	; 0x24aa <task_keyboard+0x9c>
    2462:	22 23       	and	r18, r18
    2464:	11 f5       	brne	.+68     	; 0x24aa <task_keyboard+0x9c>
    2466:	80 91 17 01 	lds	r24, 0x0117
    246a:	88 23       	and	r24, r24
    246c:	f1 f0       	breq	.+60     	; 0x24aa <task_keyboard+0x9c>
			if (front == KBI_PROG) {
    246e:	14 30       	cpi	r17, 0x04	; 4
    2470:	31 f4       	brne	.+12     	; 0x247e <task_keyboard+0x70>
				kb_events |= KB_EVENT_PROG;
    2472:	80 91 18 02 	lds	r24, 0x0218
    2476:	90 91 19 02 	lds	r25, 0x0219
    247a:	84 60       	ori	r24, 0x04	; 4
    247c:	0f c0       	rjmp	.+30     	; 0x249c <task_keyboard+0x8e>
				allow_rewoke = true;
			} else if (front == KBI_C) {
    247e:	12 30       	cpi	r17, 0x02	; 2
    2480:	31 f4       	brne	.+12     	; 0x248e <task_keyboard+0x80>
				kb_events |= KB_EVENT_C;
    2482:	80 91 18 02 	lds	r24, 0x0218
    2486:	90 91 19 02 	lds	r25, 0x0219
    248a:	88 60       	ori	r24, 0x08	; 8
    248c:	07 c0       	rjmp	.+14     	; 0x249c <task_keyboard+0x8e>
				allow_rewoke = true;
			} else if (front == KBI_AUTO) {
    248e:	18 30       	cpi	r17, 0x08	; 8
    2490:	61 f4       	brne	.+24     	; 0x24aa <task_keyboard+0x9c>
				kb_events |= KB_EVENT_AUTO;
    2492:	80 91 18 02 	lds	r24, 0x0218
    2496:	90 91 19 02 	lds	r25, 0x0219
    249a:	80 61       	ori	r24, 0x10	; 16
    249c:	90 93 19 02 	sts	0x0219, r25
    24a0:	80 93 18 02 	sts	0x0218, r24
				allow_rewoke = true;
    24a4:	81 e0       	ldi	r24, 0x01	; 1
    24a6:	80 93 1b 02 	sts	0x021B, r24
			} 
		}

        if (allow_rewoke) {
    24aa:	80 91 1b 02 	lds	r24, 0x021B
    24ae:	88 23       	and	r24, r24
    24b0:	19 f1       	breq	.+70     	; 0x24f8 <task_keyboard+0xea>
    		// some key was pressed, and keep key pressed and add some other key
    		// we need "REVOKE" event
    		if ((state_front_prev == KBI_PROG) && ((front ^ KBI_PROG) != KBI_PROG)) {
    24b2:	24 30       	cpi	r18, 0x04	; 4
    24b4:	41 f4       	brne	.+16     	; 0x24c6 <task_keyboard+0xb8>
    24b6:	11 23       	and	r17, r17
    24b8:	f9 f0       	breq	.+62     	; 0x24f8 <task_keyboard+0xea>
    			kb_events |= KB_EVENT_PROG_REWOKE;
    24ba:	80 91 18 02 	lds	r24, 0x0218
    24be:	90 91 19 02 	lds	r25, 0x0219
    24c2:	80 62       	ori	r24, 0x20	; 32
    24c4:	13 c0       	rjmp	.+38     	; 0x24ec <task_keyboard+0xde>
				allow_rewoke = false;
    		}
    		if ((state_front_prev == KBI_C) && ((front ^ KBI_C) != KBI_C)) {
    24c6:	22 30       	cpi	r18, 0x02	; 2
    24c8:	41 f4       	brne	.+16     	; 0x24da <task_keyboard+0xcc>
    24ca:	11 23       	and	r17, r17
    24cc:	a9 f0       	breq	.+42     	; 0x24f8 <task_keyboard+0xea>
    			kb_events |= KB_EVENT_C_REWOKE;
    24ce:	80 91 18 02 	lds	r24, 0x0218
    24d2:	90 91 19 02 	lds	r25, 0x0219
    24d6:	80 64       	ori	r24, 0x40	; 64
    24d8:	09 c0       	rjmp	.+18     	; 0x24ec <task_keyboard+0xde>
				allow_rewoke = false;
    		}
    		if ((state_front_prev == KBI_AUTO) && ((front ^ KBI_AUTO) != KBI_AUTO)) {
    24da:	28 30       	cpi	r18, 0x08	; 8
    24dc:	69 f4       	brne	.+26     	; 0x24f8 <task_keyboard+0xea>
    24de:	11 23       	and	r17, r17
    24e0:	59 f0       	breq	.+22     	; 0x24f8 <task_keyboard+0xea>
    			kb_events |= KB_EVENT_AUTO_REWOKE;
    24e2:	80 91 18 02 	lds	r24, 0x0218
    24e6:	90 91 19 02 	lds	r25, 0x0219
    24ea:	80 68       	ori	r24, 0x80	; 128
    24ec:	90 93 19 02 	sts	0x0219, r25
    24f0:	80 93 18 02 	sts	0x0218, r24
				allow_rewoke = false;
    24f4:	10 92 1b 02 	sts	0x021B, r1
    		}
    	}
		if (kb_timeout) { // keyboard noise cancellation
    24f8:	80 91 17 01 	lds	r24, 0x0117
    24fc:	88 23       	and	r24, r24
    24fe:	39 f0       	breq	.+14     	; 0x250e <task_keyboard+0x100>
            kb_timeout = false;
    2500:	10 92 17 01 	sts	0x0117, r1
            // while (ASSR & (1<<OCR2UB)) {;} //this is not needed; kb_timeout==true means that OCR2A must be free
            RTC_timer_set(RTC_TIMER_KB,TCNT2 + KEYBOARD_NOISE_CANCELATION);
    2504:	60 91 b2 00 	lds	r22, 0x00B2
    2508:	6e 5c       	subi	r22, 0xCE	; 206
    250a:	81 e0       	ldi	r24, 0x01	; 1
    250c:	1f db       	rcall	.-2498   	; 0x1b4c <RTC_timer_set>
        }
        state_front_prev = front;

        state_front_prev = front;
    250e:	10 93 1c 02 	sts	0x021C, r17
		long_press = 0; // long press detection RESET
    2512:	10 92 1d 02 	sts	0x021D, r1
		long_quiet = 0;
    2516:	10 92 1e 02 	sts	0x021E, r1
	} 
 }
}
    251a:	1f 91       	pop	r17
    251c:	08 95       	ret

0000251e <update_ring>:
		ring_buf_temp_avgs_pos = (ring_buf_temp_avgs_pos+1)%AVGS_BUFFER_LEN;
	}
#endif
}

static void update_ring(uint8_t type, int16_t value) {
    251e:	ef 92       	push	r14
    2520:	ff 92       	push	r15
    2522:	0f 93       	push	r16
    2524:	1f 93       	push	r17
    2526:	cf 93       	push	r28
    2528:	df 93       	push	r29

	ring_sum[type]+=value;
    252a:	c8 2f       	mov	r28, r24
    252c:	d0 e0       	ldi	r29, 0x00	; 0
	ring_sum[type]-=ring_buf[type][ring_pos]; // note for boot: it is OK, ring_buf is initialized to zeroes
    252e:	40 91 32 02 	lds	r20, 0x0232
    2532:	7b 01       	movw	r14, r22
    2534:	00 27       	eor	r16, r16
    2536:	f7 fc       	sbrc	r15, 7
    2538:	00 95       	com	r16
    253a:	10 2f       	mov	r17, r16
    253c:	9e 01       	movw	r18, r28
    253e:	22 0f       	add	r18, r18
    2540:	33 1f       	adc	r19, r19
    2542:	22 0f       	add	r18, r18
    2544:	33 1f       	adc	r19, r19
    2546:	26 5d       	subi	r18, 0xD6	; 214
    2548:	3d 4f       	sbci	r19, 0xFD	; 253
    254a:	f9 01       	movw	r30, r18
    254c:	80 81       	ld	r24, Z
    254e:	91 81       	ldd	r25, Z+1	; 0x01
    2550:	a2 81       	ldd	r26, Z+2	; 0x02
    2552:	b3 81       	ldd	r27, Z+3	; 0x03
    2554:	e8 0e       	add	r14, r24
    2556:	f9 1e       	adc	r15, r25
    2558:	0a 1f       	adc	r16, r26
    255a:	1b 1f       	adc	r17, r27
    255c:	fe 01       	movw	r30, r28
    255e:	54 e0       	ldi	r21, 0x04	; 4
    2560:	ee 0f       	add	r30, r30
    2562:	ff 1f       	adc	r31, r31
    2564:	5a 95       	dec	r21
    2566:	e1 f7       	brne	.-8      	; 0x2560 <update_ring+0x42>
    2568:	ec 1b       	sub	r30, r28
    256a:	fd 0b       	sbc	r31, r29
    256c:	e4 0f       	add	r30, r20
    256e:	f1 1d       	adc	r31, r1
    2570:	ee 0f       	add	r30, r30
    2572:	ff 1f       	adc	r31, r31
    2574:	eb 5c       	subi	r30, 0xCB	; 203
    2576:	fd 4f       	sbci	r31, 0xFD	; 253
    2578:	80 81       	ld	r24, Z
    257a:	91 81       	ldd	r25, Z+1	; 0x01
    257c:	aa 27       	eor	r26, r26
    257e:	97 fd       	sbrc	r25, 7
    2580:	a0 95       	com	r26
    2582:	ba 2f       	mov	r27, r26
    2584:	e8 1a       	sub	r14, r24
    2586:	f9 0a       	sbc	r15, r25
    2588:	0a 0b       	sbc	r16, r26
    258a:	1b 0b       	sbc	r17, r27
    258c:	d9 01       	movw	r26, r18
    258e:	ed 92       	st	X+, r14
    2590:	fd 92       	st	X+, r15
    2592:	0d 93       	st	X+, r16
    2594:	1c 93       	st	X, r17
    2596:	13 97       	sbiw	r26, 0x03	; 3
	ring_buf[type][ring_pos]=value;
    2598:	71 83       	std	Z+1, r23	; 0x01
    259a:	60 83       	st	Z, r22
	if (ring_used>=AVERAGE_LEN-1) { // note for "-1", last measurement can update ring_average
    259c:	80 91 33 02 	lds	r24, 0x0233
    25a0:	8e 30       	cpi	r24, 0x0E	; 14
    25a2:	70 f0       	brcs	.+28     	; 0x25c0 <update_ring+0xa2>
		ring_average[type] = (int16_t) (ring_sum[type]/(int32_t)(AVERAGE_LEN));
    25a4:	cc 0f       	add	r28, r28
    25a6:	dd 1f       	adc	r29, r29
    25a8:	cc 5d       	subi	r28, 0xDC	; 220
    25aa:	dd 4f       	sbci	r29, 0xFD	; 253
    25ac:	c8 01       	movw	r24, r16
    25ae:	b7 01       	movw	r22, r14
    25b0:	2f e0       	ldi	r18, 0x0F	; 15
    25b2:	30 e0       	ldi	r19, 0x00	; 0
    25b4:	40 e0       	ldi	r20, 0x00	; 0
    25b6:	50 e0       	ldi	r21, 0x00	; 0
    25b8:	0e 94 66 1c 	call	0x38cc	; 0x38cc <__divmodsi4>
    25bc:	39 83       	std	Y+1, r19	; 0x01
    25be:	28 83       	st	Y, r18
	}
}
    25c0:	cd b7       	in	r28, 0x3d	; 61
    25c2:	de b7       	in	r29, 0x3e	; 62
    25c4:	e6 e0       	ldi	r30, 0x06	; 6
    25c6:	0c 94 a9 1c 	jmp	0x3952	; 0x3952 <__epilogue_restores__+0x18>

000025ca <start_task_ADC>:
 *******************************************************************************
 * ADC task
 * \note
 ******************************************************************************/
void start_task_ADC(void) {
	state_ADC=1;
    25ca:	91 e0       	ldi	r25, 0x01	; 1
    25cc:	90 93 34 02 	sts	0x0234, r25
	// power up ADC
	power_up_ADC();
    25d0:	8c e0       	ldi	r24, 0x0C	; 12
    25d2:	80 93 64 00 	sts	0x0064, r24

	// set ADC control and status register
	ADCSRA = (1<<ADEN)|(1<<ADPS2)|(1<<ADIE);         // prescaler=16
    25d6:	8c e8       	ldi	r24, 0x8C	; 140
    25d8:	80 93 7a 00 	sts	0x007A, r24

	// free running mode, (not needed, because auto trigger disabled)
	ADCSRB = 0;
    25dc:	10 92 7b 00 	sts	0x007B, r1

	ADMUX = ADC_UB_MUX | (1<<REFS0);
    25e0:	8e e5       	ldi	r24, 0x5E	; 94
    25e2:	80 93 7c 00 	sts	0x007C, r24
	sleep_with_ADC=1;
    25e6:	90 93 1f 02 	sts	0x021F, r25
}
    25ea:	08 95       	ret

000025ec <__vector_19>:
}
#else
// optimized
ISR_NAKED ISR (ADC_vect) {
	/* note: __zero_reg__ is not used, It can be reused on some other user assembler code */ 
	asm volatile(
    25ec:	f2 9a       	sbi	0x1e, 2	; 30
    25ee:	18 95       	reti

000025f0 <task_ADC>:
static int16_t dummy_adc=0;
/*!
 *******************************************************************************
 * ADC task
 ******************************************************************************/
bool task_ADC(void) {
    25f0:	ef 92       	push	r14
    25f2:	ff 92       	push	r15
    25f4:	0f 93       	push	r16
    25f6:	1f 93       	push	r17
	switch (state_ADC) {
    25f8:	80 91 34 02 	lds	r24, 0x0234
    25fc:	83 30       	cpi	r24, 0x03	; 3
    25fe:	99 f0       	breq	.+38     	; 0x2626 <task_ADC+0x36>
    2600:	84 30       	cpi	r24, 0x04	; 4
    2602:	30 f4       	brcc	.+12     	; 0x2610 <task_ADC+0x20>
    2604:	81 30       	cpi	r24, 0x01	; 1
    2606:	59 f0       	breq	.+22     	; 0x261e <task_ADC+0x2e>
    2608:	82 30       	cpi	r24, 0x02	; 2
    260a:	09 f0       	breq	.+2      	; 0x260e <task_ADC+0x1e>
    260c:	e4 c0       	rjmp	.+456    	; 0x27d6 <task_ADC+0x1e6>
    260e:	54 c0       	rjmp	.+168    	; 0x26b8 <task_ADC+0xc8>
    2610:	84 30       	cpi	r24, 0x04	; 4
    2612:	09 f4       	brne	.+2      	; 0x2616 <task_ADC+0x26>
    2614:	51 c0       	rjmp	.+162    	; 0x26b8 <task_ADC+0xc8>
    2616:	85 30       	cpi	r24, 0x05	; 5
    2618:	09 f0       	breq	.+2      	; 0x261c <task_ADC+0x2c>
    261a:	dd c0       	rjmp	.+442    	; 0x27d6 <task_ADC+0x1e6>
    261c:	56 c0       	rjmp	.+172    	; 0x26ca <task_ADC+0xda>
		case 1: //step 1
			// set ADC control and status register
			ADCSRA = (1<<ADEN)|(1<<ADPS2)|(1<<ADPS0)|(1<<ADIE); // prescaler=32
    261e:	8d e8       	ldi	r24, 0x8D	; 141
    2620:	80 93 7a 00 	sts	0x007A, r24
    2624:	e0 c0       	rjmp	.+448    	; 0x27e6 <task_ADC+0x1f6>
			// first conversion put to trash
			// start new with same configuration;
			break;
		case 3: //step 3
			{	
				int16_t ad = ADCW;
    2626:	20 91 78 00 	lds	r18, 0x0078
    262a:	30 91 79 00 	lds	r19, 0x0079
    262e:	a9 01       	movw	r20, r18
				if ((ad>dummy_adc+ADC_TOLERANCE)||(ad<dummy_adc-ADC_TOLERANCE)) { 
    2630:	60 91 28 02 	lds	r22, 0x0228
    2634:	70 91 29 02 	lds	r23, 0x0229
    2638:	cb 01       	movw	r24, r22
    263a:	03 96       	adiw	r24, 0x03	; 3
    263c:	82 17       	cp	r24, r18
    263e:	93 07       	cpc	r25, r19
    2640:	2c f0       	brlt	.+10     	; 0x264c <task_ADC+0x5c>
    2642:	63 50       	subi	r22, 0x03	; 3
    2644:	70 40       	sbci	r23, 0x00	; 0
    2646:	26 17       	cp	r18, r22
    2648:	37 07       	cpc	r19, r23
    264a:	2c f4       	brge	.+10     	; 0x2656 <task_ADC+0x66>
					// adc noise protection, repeat measure
REPEAT_ADC:
					dummy_adc=ad;
    264c:	40 93 28 02 	sts	0x0228, r20
    2650:	50 93 29 02 	sts	0x0229, r21
    2654:	cd c0       	rjmp	.+410    	; 0x27f0 <task_ADC+0x200>
#if DEBUG_BATT_ADC
				COM_printStr16(PSTR("batAD x"),ad);
#endif
				int16_t b =  ADC_Get_Bat_Voltage(ad);
				
				update_ring(BAT_RING_TYPE,b);
    2656:	40 e0       	ldi	r20, 0x00	; 0
    2658:	50 e0       	ldi	r21, 0x00	; 0
    265a:	60 e0       	ldi	r22, 0x00	; 0
    265c:	70 e3       	ldi	r23, 0x30	; 48
    265e:	81 e1       	ldi	r24, 0x11	; 17
    2660:	90 e0       	ldi	r25, 0x00	; 0
    2662:	0e 94 44 1c 	call	0x3888	; 0x3888 <__udivmodsi4>
    2666:	80 e0       	ldi	r24, 0x00	; 0
    2668:	b9 01       	movw	r22, r18
    266a:	59 df       	rcall	.-334    	; 0x251e <update_ring>
				
				if((bat_average > last_bat_reading + CTL_bat_threshold) ||  (bat_average < last_bat_reading - CTL_bat_threshold)){
    266c:	40 91 24 02 	lds	r20, 0x0224
    2670:	50 91 25 02 	lds	r21, 0x0225
    2674:	20 91 22 02 	lds	r18, 0x0222
    2678:	30 91 23 02 	lds	r19, 0x0223
    267c:	60 91 09 01 	lds	r22, 0x0109
    2680:	70 91 0a 01 	lds	r23, 0x010A
    2684:	cb 01       	movw	r24, r22
    2686:	82 0f       	add	r24, r18
    2688:	93 1f       	adc	r25, r19
    268a:	84 17       	cp	r24, r20
    268c:	95 07       	cpc	r25, r21
    268e:	2c f0       	brlt	.+10     	; 0x269a <task_ADC+0xaa>
    2690:	26 1b       	sub	r18, r22
    2692:	37 0b       	sbc	r19, r23
    2694:	42 17       	cp	r20, r18
    2696:	53 07       	cpc	r21, r19
    2698:	54 f4       	brge	.+20     	; 0x26ae <task_ADC+0xbe>
					COM_send_battery_event(bat_average);
    269a:	ca 01       	movw	r24, r20
    269c:	6d d9       	rcall	.-3366   	; 0x1978 <COM_send_battery_event>
					last_bat_reading = bat_average;
    269e:	80 91 24 02 	lds	r24, 0x0224
    26a2:	90 91 25 02 	lds	r25, 0x0225
    26a6:	90 93 23 02 	sts	0x0223, r25
    26aa:	80 93 22 02 	sts	0x0222, r24
				}

				// activate voltage divider
				ADC_ACT_TEMP_P |= (1<<ADC_ACT_TEMP);
    26ae:	8b 9a       	sbi	0x11, 3	; 17
				ADMUX = ADC_TEMP_MUX | (1<<REFS0);
    26b0:	82 e4       	ldi	r24, 0x42	; 66
    26b2:	80 93 7c 00 	sts	0x007C, r24
    26b6:	97 c0       	rjmp	.+302    	; 0x27e6 <task_ADC+0x1f6>
			}
			break;
		case 2: //step 2
		case 4: //step 4
			dummy_adc = ADCW;
    26b8:	80 91 78 00 	lds	r24, 0x0078
    26bc:	90 91 79 00 	lds	r25, 0x0079
    26c0:	90 93 29 02 	sts	0x0229, r25
    26c4:	80 93 28 02 	sts	0x0228, r24
    26c8:	8e c0       	rjmp	.+284    	; 0x27e6 <task_ADC+0x1f6>
			break;
		case 5: //step 5
			{
				int16_t ad = ADCW;
    26ca:	a0 91 78 00 	lds	r26, 0x0078
    26ce:	b0 91 79 00 	lds	r27, 0x0079
				if ((ad>dummy_adc+ADC_TOLERANCE)||(ad<dummy_adc-ADC_TOLERANCE)) { 
    26d2:	20 91 28 02 	lds	r18, 0x0228
    26d6:	30 91 29 02 	lds	r19, 0x0229
    26da:	c9 01       	movw	r24, r18
    26dc:	03 96       	adiw	r24, 0x03	; 3
    26de:	8a 17       	cp	r24, r26
    26e0:	9b 07       	cpc	r25, r27
    26e2:	0c f4       	brge	.+2      	; 0x26e6 <task_ADC+0xf6>
    26e4:	b3 cf       	rjmp	.-154    	; 0x264c <task_ADC+0x5c>
    26e6:	23 50       	subi	r18, 0x03	; 3
    26e8:	30 40       	sbci	r19, 0x00	; 0
    26ea:	a2 17       	cp	r26, r18
    26ec:	b3 07       	cpc	r27, r19
    26ee:	0c f4       	brge	.+2      	; 0x26f2 <task_ADC+0x102>
    26f0:	ad cf       	rjmp	.-166    	; 0x264c <task_ADC+0x5c>
 ******************************************************************************/
static int16_t ADC_Convert_To_Degree(int16_t adc)
{
	int16_t dummy;
	uint8_t i;
	int16_t kx=TEMP_CAL_OFFSET+(int16_t)kx_d[0];
    26f2:	80 91 a5 02 	lds	r24, 0x02A5
    26f6:	28 2f       	mov	r18, r24
    26f8:	30 e0       	ldi	r19, 0x00	; 0
    26fa:	20 50       	subi	r18, 0x00	; 0
    26fc:	3f 4f       	sbci	r19, 0xFF	; 255
    26fe:	e6 ea       	ldi	r30, 0xA6	; 166
    2700:	f2 e0       	ldi	r31, 0x02	; 2
    2702:	01 e0       	ldi	r16, 0x01	; 1
	for (i=1; i<TEMP_CAL_N-1; i++){
		if (adc<kx+kx_d[i]){
    2704:	80 81       	ld	r24, Z
    2706:	a9 01       	movw	r20, r18
    2708:	48 0f       	add	r20, r24
    270a:	51 1d       	adc	r21, r1
    270c:	a4 17       	cp	r26, r20
    270e:	b5 07       	cpc	r27, r21
    2710:	34 f0       	brlt	.+12     	; 0x271e <task_ADC+0x12e>
static int16_t ADC_Convert_To_Degree(int16_t adc)
{
	int16_t dummy;
	uint8_t i;
	int16_t kx=TEMP_CAL_OFFSET+(int16_t)kx_d[0];
	for (i=1; i<TEMP_CAL_N-1; i++){
    2712:	0f 5f       	subi	r16, 0xFF	; 255
    2714:	31 96       	adiw	r30, 0x01	; 1
    2716:	06 30       	cpi	r16, 0x06	; 6
    2718:	19 f0       	breq	.+6      	; 0x2720 <task_ADC+0x130>
    271a:	9a 01       	movw	r18, r20
    271c:	f3 cf       	rjmp	.-26     	; 0x2704 <task_ADC+0x114>
    271e:	a9 01       	movw	r20, r18
				if ((ad>dummy_adc+ADC_TOLERANCE)||(ad<dummy_adc-ADC_TOLERANCE)) { 
					// adc noise protection, repeat measure
					goto REPEAT_ADC; // optimization
				}
				int16_t t = ADC_Convert_To_Degree(ad);
				update_ring(TEMP_RING_TYPE,t);
    2720:	10 e0       	ldi	r17, 0x00	; 0
    2722:	8c e0       	ldi	r24, 0x0C	; 12
    2724:	9e ef       	ldi	r25, 0xFE	; 254
    2726:	08 9f       	mul	r16, r24
    2728:	70 01       	movw	r14, r0
    272a:	09 9f       	mul	r16, r25
    272c:	f0 0c       	add	r15, r0
    272e:	18 9f       	mul	r17, r24
    2730:	f0 0c       	add	r15, r0
    2732:	11 24       	eor	r1, r1
    2734:	80 ea       	ldi	r24, 0xA0	; 160
    2736:	9f e0       	ldi	r25, 0x0F	; 15
    2738:	e8 0e       	add	r14, r24
    273a:	f9 1e       	adc	r15, r25
    273c:	a4 1b       	sub	r26, r20
    273e:	b5 0b       	sbc	r27, r21
    2740:	bd 01       	movw	r22, r26
    2742:	88 27       	eor	r24, r24
    2744:	77 fd       	sbrc	r23, 7
    2746:	80 95       	com	r24
    2748:	98 2f       	mov	r25, r24
    274a:	2c e0       	ldi	r18, 0x0C	; 12
    274c:	3e ef       	ldi	r19, 0xFE	; 254
    274e:	4f ef       	ldi	r20, 0xFF	; 255
    2750:	5f ef       	ldi	r21, 0xFF	; 255
    2752:	0e 94 e5 1b 	call	0x37ca	; 0x37ca <__mulsi3>
    2756:	0b 55       	subi	r16, 0x5B	; 91
    2758:	1d 4f       	sbci	r17, 0xFD	; 253
    275a:	f8 01       	movw	r30, r16
    275c:	20 81       	ld	r18, Z
    275e:	30 e0       	ldi	r19, 0x00	; 0
    2760:	40 e0       	ldi	r20, 0x00	; 0
    2762:	50 e0       	ldi	r21, 0x00	; 0
    2764:	0e 94 66 1c 	call	0x38cc	; 0x38cc <__divmodsi4>
    2768:	e2 0e       	add	r14, r18
    276a:	f3 1e       	adc	r15, r19
    276c:	81 e0       	ldi	r24, 0x01	; 1
    276e:	b7 01       	movw	r22, r14
    2770:	d6 de       	rcall	.-596    	; 0x251e <update_ring>
				if ((temp_average > last_temp_reading + CTL_temp_threshold) || (temp_average < last_temp_reading - CTL_temp_threshold)){
    2772:	40 91 26 02 	lds	r20, 0x0226
    2776:	50 91 27 02 	lds	r21, 0x0227
    277a:	20 91 20 02 	lds	r18, 0x0220
    277e:	30 91 21 02 	lds	r19, 0x0221
    2782:	60 91 07 01 	lds	r22, 0x0107
    2786:	70 91 08 01 	lds	r23, 0x0108
    278a:	cb 01       	movw	r24, r22
    278c:	82 0f       	add	r24, r18
    278e:	93 1f       	adc	r25, r19
    2790:	84 17       	cp	r24, r20
    2792:	95 07       	cpc	r25, r21
    2794:	2c f0       	brlt	.+10     	; 0x27a0 <task_ADC+0x1b0>
    2796:	26 1b       	sub	r18, r22
    2798:	37 0b       	sbc	r19, r23
    279a:	42 17       	cp	r20, r18
    279c:	53 07       	cpc	r21, r19
    279e:	54 f4       	brge	.+20     	; 0x27b4 <task_ADC+0x1c4>
					COM_send_temperature_event(temp_average);
    27a0:	ca 01       	movw	r24, r20
    27a2:	fb d8       	rcall	.-3594   	; 0x199a <COM_send_temperature_event>
					last_temp_reading = temp_average;
    27a4:	80 91 26 02 	lds	r24, 0x0226
    27a8:	90 91 27 02 	lds	r25, 0x0227
    27ac:	90 93 21 02 	sts	0x0221, r25
    27b0:	80 93 20 02 	sts	0x0220, r24
static uint8_t ring_used=0; 
static int32_t ring_sum [2] = {0,0};
int16_t ring_average [2] = {0,0};

static void shift_ring(void) {
	ring_pos = (ring_pos+1) % AVERAGE_LEN;
    27b4:	80 91 32 02 	lds	r24, 0x0232
    27b8:	90 e0       	ldi	r25, 0x00	; 0
    27ba:	01 96       	adiw	r24, 0x01	; 1
    27bc:	6f e0       	ldi	r22, 0x0F	; 15
    27be:	70 e0       	ldi	r23, 0x00	; 0
    27c0:	0e 94 31 1c 	call	0x3862	; 0x3862 <__divmodhi4>
    27c4:	80 93 32 02 	sts	0x0232, r24
	if (ring_used<AVERAGE_LEN) {
    27c8:	80 91 33 02 	lds	r24, 0x0233
    27cc:	8f 30       	cpi	r24, 0x0F	; 15
    27ce:	18 f4       	brcc	.+6      	; 0x27d6 <task_ADC+0x1e6>
		ring_used++;
    27d0:	8f 5f       	subi	r24, 0xFF	; 255
    27d2:	80 93 33 02 	sts	0x0233, r24
				shift_ring();
			}
			// do not use break here
		default:
			// deactivate voltage divider
			ADC_ACT_TEMP_P &= ~(1<<ADC_ACT_TEMP);
    27d6:	8b 98       	cbi	0x11, 3	; 17
			// set ADC control and status register / disable ADC
			ADCSRA = (0<<ADEN)|(1<<ADPS2)|(1<<ADPS0)|(1<<ADIE); 
    27d8:	8d e0       	ldi	r24, 0x0D	; 13
    27da:	80 93 7a 00 	sts	0x007A, r24
			// power down ADC
			power_down_ADC();
    27de:	80 93 64 00 	sts	0x0064, r24
    27e2:	80 e0       	ldi	r24, 0x00	; 0
    27e4:	08 c0       	rjmp	.+16     	; 0x27f6 <task_ADC+0x206>
			return false;
	}
	state_ADC++;
    27e6:	80 91 34 02 	lds	r24, 0x0234
    27ea:	8f 5f       	subi	r24, 0xFF	; 255
    27ec:	80 93 34 02 	sts	0x0234, r24
	sleep_with_ADC=true;
    27f0:	81 e0       	ldi	r24, 0x01	; 1
    27f2:	80 93 1f 02 	sts	0x021F, r24
	return true;
}
    27f6:	1f 91       	pop	r17
    27f8:	0f 91       	pop	r16
    27fa:	ff 90       	pop	r15
    27fc:	ef 90       	pop	r14
    27fe:	08 95       	ret

00002800 <EEPROM_read>:
 *
 ******************************************************************************/

uint8_t EEPROM_read(uint16_t address) {
	/* Wait for completion of previous write */
	while(EECR & (1<<EEWE))
    2800:	f9 99       	sbic	0x1f, 1	; 31
    2802:	fe cf       	rjmp	.-4      	; 0x2800 <EEPROM_read>
		;
	EEAR = address;
    2804:	92 bd       	out	0x22, r25	; 34
    2806:	81 bd       	out	0x21, r24	; 33
	EECR |= (1<<EERE);
    2808:	f8 9a       	sbi	0x1f, 0	; 31
	return EEDR;
    280a:	80 b5       	in	r24, 0x20	; 32
}
    280c:	08 95       	ret

0000280e <config_read>:
 *  config_read
 *	it is similar as EEPROM_read, but optimized for special usage
 ******************************************************************************/
uint8_t config_read(uint8_t cfg_address, uint8_t cfg_type) {
	/* Wait for completion of previous write */
	while(EECR & (1<<EEWE))
    280e:	f9 99       	sbic	0x1f, 1	; 31
    2810:	fe cf       	rjmp	.-4      	; 0x280e <config_read>
		;
	EEAR = (((uint16_t) cfg_address) << 2) + cfg_type + (uint16_t)(&ee_config);
    2812:	90 e0       	ldi	r25, 0x00	; 0
    2814:	88 0f       	add	r24, r24
    2816:	99 1f       	adc	r25, r25
    2818:	88 0f       	add	r24, r24
    281a:	99 1f       	adc	r25, r25
    281c:	86 0f       	add	r24, r22
    281e:	91 1d       	adc	r25, r1
    2820:	80 54       	subi	r24, 0x40	; 64
    2822:	9f 4f       	sbci	r25, 0xFF	; 255
    2824:	92 bd       	out	0x22, r25	; 34
    2826:	81 bd       	out	0x21, r24	; 33
	EECR |= (1<<EERE);
    2828:	f8 9a       	sbi	0x1f, 0	; 31
	return EEDR;
    282a:	80 b5       	in	r24, 0x20	; 32
}
    282c:	08 95       	ret

0000282e <EEPROM_write>:
 *  \note private function
 *  \note write to ee_config is limited 
 ******************************************************************************/
#define config_write(cfg_address,data) (EEPROM_write((((uint16_t) cfg_address) << 2) + CONFIG_VALUE + (uint16_t)(&ee_config),data))

static void EEPROM_write(uint16_t address, uint8_t data) {
    282e:	9c 01       	movw	r18, r24
	/* Wait for completion of previous write */
	if ((address >= (uint16_t)&ee_config) && (address & 3)) {
    2830:	80 e0       	ldi	r24, 0x00	; 0
    2832:	20 3c       	cpi	r18, 0xC0	; 192
    2834:	38 07       	cpc	r19, r24
    2836:	28 f0       	brcs	.+10     	; 0x2842 <EEPROM_write+0x14>
    2838:	c9 01       	movw	r24, r18
    283a:	83 70       	andi	r24, 0x03	; 3
    283c:	90 70       	andi	r25, 0x00	; 0
    283e:	89 2b       	or	r24, r25
    2840:	49 f4       	brne	.+18     	; 0x2854 <EEPROM_write+0x26>
	  // write to eeconfig area is allowed only to column 0 / alligned to 4
    return; // write protection for configuration default/min/max data
  }
  while(EECR & (1<<EEWE))
    2842:	f9 99       	sbic	0x1f, 1	; 31
    2844:	fe cf       	rjmp	.-4      	; 0x2842 <EEPROM_write+0x14>
		;
	EEAR = address;
    2846:	32 bd       	out	0x22, r19	; 34
    2848:	21 bd       	out	0x21, r18	; 33
	EEDR = data;
    284a:	60 bd       	out	0x20, r22	; 32
	asm ("cli");
    284c:	f8 94       	cli
	EECR |= (1<<EEMWE);
    284e:	fa 9a       	sbi	0x1f, 2	; 31
	EECR |= (1<<EEWE);
    2850:	f9 9a       	sbi	0x1f, 1	; 31
	asm ("sei");
    2852:	78 94       	sei
    2854:	08 95       	ret

00002856 <eeprom_config_save>:
 *******************************************************************************
 *  Update configuration storage
 *
 *  \note
 ******************************************************************************/
void eeprom_config_save(uint8_t idx) {
    2856:	ef 92       	push	r14
    2858:	ff 92       	push	r15
    285a:	0f 93       	push	r16
    285c:	1f 93       	push	r17
    285e:	cf 93       	push	r28
    2860:	df 93       	push	r29
    2862:	08 2f       	mov	r16, r24
	if (idx<CONFIG_RAW_SIZE) {
    2864:	89 32       	cpi	r24, 0x29	; 41
    2866:	18 f5       	brcc	.+70     	; 0x28ae <eeprom_config_save+0x58>
		if (config_raw[idx] != config_value(idx)) {
    2868:	e8 2e       	mov	r14, r24
    286a:	ff 24       	eor	r15, r15
    286c:	e7 01       	movw	r28, r14
    286e:	c6 57       	subi	r28, 0x76	; 118
    2870:	dd 4f       	sbci	r29, 0xFD	; 253
    2872:	18 81       	ld	r17, Y
    2874:	60 e0       	ldi	r22, 0x00	; 0
    2876:	cb df       	rcall	.-106    	; 0x280e <config_read>
    2878:	18 17       	cp	r17, r24
    287a:	c9 f0       	breq	.+50     	; 0x28ae <eeprom_config_save+0x58>
			if ((config_raw[idx] < config_min(idx)) //min
    287c:	18 81       	ld	r17, Y
    287e:	80 2f       	mov	r24, r16
    2880:	62 e0       	ldi	r22, 0x02	; 2
    2882:	c5 df       	rcall	.-118    	; 0x280e <config_read>
    2884:	18 17       	cp	r17, r24
    2886:	30 f0       	brcs	.+12     	; 0x2894 <eeprom_config_save+0x3e>
    2888:	18 81       	ld	r17, Y
    288a:	80 2f       	mov	r24, r16
    288c:	63 e0       	ldi	r22, 0x03	; 3
    288e:	bf df       	rcall	.-130    	; 0x280e <config_read>
    2890:	81 17       	cp	r24, r17
    2892:	20 f4       	brcc	.+8      	; 0x289c <eeprom_config_save+0x46>
		 	|| (config_raw[idx] > config_max(idx))) { //max
				config_raw[idx] = config_default(idx); // default value
    2894:	80 2f       	mov	r24, r16
    2896:	61 e0       	ldi	r22, 0x01	; 1
    2898:	ba df       	rcall	.-140    	; 0x280e <config_read>
    289a:	88 83       	st	Y, r24
			}
			config_write(idx, config_raw[idx]);
    289c:	ee 0c       	add	r14, r14
    289e:	ff 1c       	adc	r15, r15
    28a0:	ee 0c       	add	r14, r14
    28a2:	ff 1c       	adc	r15, r15
    28a4:	c7 01       	movw	r24, r14
    28a6:	80 54       	subi	r24, 0x40	; 64
    28a8:	9f 4f       	sbci	r25, 0xFF	; 255
    28aa:	68 81       	ld	r22, Y
    28ac:	c0 df       	rcall	.-128    	; 0x282e <EEPROM_write>
		}
	}
}
    28ae:	cd b7       	in	r28, 0x3d	; 61
    28b0:	de b7       	in	r29, 0x3e	; 62
    28b2:	e6 e0       	ldi	r30, 0x06	; 6
    28b4:	0c 94 a9 1c 	jmp	0x3952	; 0x3952 <__epilogue_restores__+0x18>

000028b8 <eeprom_config_init>:
 *  Init configuration storage
 *
 *  \note
 ******************************************************************************/

void eeprom_config_init(bool restore_default) {
    28b8:	ff 92       	push	r15
    28ba:	0f 93       	push	r16
    28bc:	1f 93       	push	r17
    28be:	cf 93       	push	r28
    28c0:	df 93       	push	r29
    28c2:	f8 2e       	mov	r15, r24
    28c4:	ca e8       	ldi	r28, 0x8A	; 138
    28c6:	d2 e0       	ldi	r29, 0x02	; 2
    28c8:	00 e0       	ldi	r16, 0x00	; 0
	
	uint16_t i;
	uint8_t *config_ptr = config_raw;
	for (i=0;i<CONFIG_RAW_SIZE;i++) {
	    if (restore_default) {
    28ca:	ff 20       	and	r15, r15
    28cc:	81 f4       	brne	.+32     	; 0x28ee <eeprom_config_init+0x36>
   		   *config_ptr = config_default(i); // default value
   	    } else {
   		   *config_ptr =  config_value(i);
    28ce:	80 2f       	mov	r24, r16
    28d0:	60 e0       	ldi	r22, 0x00	; 0
    28d2:	9d df       	rcall	.-198    	; 0x280e <config_read>
    28d4:	18 2f       	mov	r17, r24
    28d6:	88 83       	st	Y, r24
    		if ((*config_ptr < config_min(i)) //min
    28d8:	80 2f       	mov	r24, r16
    28da:	62 e0       	ldi	r22, 0x02	; 2
    28dc:	98 df       	rcall	.-208    	; 0x280e <config_read>
    28de:	18 17       	cp	r17, r24
    28e0:	30 f0       	brcs	.+12     	; 0x28ee <eeprom_config_init+0x36>
    28e2:	18 81       	ld	r17, Y
    28e4:	80 2f       	mov	r24, r16
    28e6:	63 e0       	ldi	r22, 0x03	; 3
    28e8:	92 df       	rcall	.-220    	; 0x280e <config_read>
    28ea:	81 17       	cp	r24, r17
    28ec:	20 f4       	brcc	.+8      	; 0x28f6 <eeprom_config_init+0x3e>
    		 || (*config_ptr > config_max(i))) { //max
    			*config_ptr = config_default(i); // default value
    28ee:	80 2f       	mov	r24, r16
    28f0:	61 e0       	ldi	r22, 0x01	; 1
    28f2:	8d df       	rcall	.-230    	; 0x280e <config_read>
    28f4:	88 83       	st	Y, r24
    		}
        }
		eeprom_config_save(i); // update if default value is restored
    28f6:	80 2f       	mov	r24, r16
    28f8:	ae df       	rcall	.-164    	; 0x2856 <eeprom_config_save>
    28fa:	0f 5f       	subi	r16, 0xFF	; 255

void eeprom_config_init(bool restore_default) {
	
	uint16_t i;
	uint8_t *config_ptr = config_raw;
	for (i=0;i<CONFIG_RAW_SIZE;i++) {
    28fc:	09 32       	cpi	r16, 0x29	; 41
    28fe:	11 f0       	breq	.+4      	; 0x2904 <eeprom_config_init+0x4c>
    		 || (*config_ptr > config_max(i))) { //max
    			*config_ptr = config_default(i); // default value
    		}
        }
		eeprom_config_save(i); // update if default value is restored
		config_ptr++;
    2900:	21 96       	adiw	r28, 0x01	; 1
    2902:	e3 cf       	rjmp	.-58     	; 0x28ca <eeprom_config_init+0x12>
	}
}
    2904:	cd b7       	in	r28, 0x3d	; 61
    2906:	de b7       	in	r29, 0x3e	; 62
    2908:	e5 e0       	ldi	r30, 0x05	; 5
    290a:	0c 94 aa 1c 	jmp	0x3954	; 0x3954 <__epilogue_restores__+0x1a>

0000290e <eeprom_timers_read_raw>:
 *  read timer from storage
 *
 *  \note
 ******************************************************************************/

uint16_t eeprom_timers_read_raw(uint8_t offset) {
    290e:	98 2f       	mov	r25, r24
    if (offset != timmers_patch_offset) {
    2910:	80 91 18 01 	lds	r24, 0x0118
    2914:	98 17       	cp	r25, r24
    2916:	d9 f0       	breq	.+54     	; 0x294e <eeprom_timers_read_raw+0x40>
        uint16_t eeaddr = (uint16_t)offset * (uint16_t)sizeof(ee_timers[0][0]) + (uint16_t)ee_timers;
    2918:	29 2f       	mov	r18, r25
    291a:	30 e0       	ldi	r19, 0x00	; 0
    291c:	22 0f       	add	r18, r18
    291e:	33 1f       	adc	r19, r19
    2920:	2c 5f       	subi	r18, 0xFC	; 252
    2922:	3f 4f       	sbci	r19, 0xFF	; 255
 *
 ******************************************************************************/

uint8_t EEPROM_read(uint16_t address) {
	/* Wait for completion of previous write */
	while(EECR & (1<<EEWE))
    2924:	f9 99       	sbic	0x1f, 1	; 31
    2926:	fe cf       	rjmp	.-4      	; 0x2924 <eeprom_timers_read_raw+0x16>
 ******************************************************************************/

uint16_t eeprom_timers_read_raw(uint8_t offset) {
    if (offset != timmers_patch_offset) {
        uint16_t eeaddr = (uint16_t)offset * (uint16_t)sizeof(ee_timers[0][0]) + (uint16_t)ee_timers;
    	return (EEPROM_read(eeaddr+1)<<8) + EEPROM_read(eeaddr); //litle endian
    2928:	c9 01       	movw	r24, r18
    292a:	01 96       	adiw	r24, 0x01	; 1

uint8_t EEPROM_read(uint16_t address) {
	/* Wait for completion of previous write */
	while(EECR & (1<<EEWE))
		;
	EEAR = address;
    292c:	92 bd       	out	0x22, r25	; 34
    292e:	81 bd       	out	0x21, r24	; 33
	EECR |= (1<<EERE);
    2930:	f8 9a       	sbi	0x1f, 0	; 31
	return EEDR;
    2932:	40 b5       	in	r20, 0x20	; 32
 *
 ******************************************************************************/

uint8_t EEPROM_read(uint16_t address) {
	/* Wait for completion of previous write */
	while(EECR & (1<<EEWE))
    2934:	f9 99       	sbic	0x1f, 1	; 31
    2936:	fe cf       	rjmp	.-4      	; 0x2934 <eeprom_timers_read_raw+0x26>
		;
	EEAR = address;
    2938:	32 bd       	out	0x22, r19	; 34
    293a:	21 bd       	out	0x21, r18	; 33
	EECR |= (1<<EERE);
    293c:	f8 9a       	sbi	0x1f, 0	; 31
	return EEDR;
    293e:	20 b5       	in	r18, 0x20	; 32
 ******************************************************************************/

uint16_t eeprom_timers_read_raw(uint8_t offset) {
    if (offset != timmers_patch_offset) {
        uint16_t eeaddr = (uint16_t)offset * (uint16_t)sizeof(ee_timers[0][0]) + (uint16_t)ee_timers;
    	return (EEPROM_read(eeaddr+1)<<8) + EEPROM_read(eeaddr); //litle endian
    2940:	94 2f       	mov	r25, r20
    2942:	80 e0       	ldi	r24, 0x00	; 0
    2944:	ac 01       	movw	r20, r24
    2946:	42 0f       	add	r20, r18
    2948:	51 1d       	adc	r21, r1
    294a:	9a 01       	movw	r18, r20
    294c:	04 c0       	rjmp	.+8      	; 0x2956 <eeprom_timers_read_raw+0x48>
    } else {
        return timmers_patch_data;
    294e:	20 91 88 02 	lds	r18, 0x0288
    2952:	30 91 89 02 	lds	r19, 0x0289
    }
}
    2956:	c9 01       	movw	r24, r18
    2958:	08 95       	ret

0000295a <eeprom_timers_write_raw>:
 *******************************************************************************
 *  Update timer storage for dow and slot
 *
 *  \note
 ******************************************************************************/
void eeprom_timers_write_raw(uint8_t offset, uint16_t value) {
    295a:	ff 92       	push	r15
    295c:	0f 93       	push	r16
    295e:	1f 93       	push	r17
    2960:	f7 2e       	mov	r15, r23
    if (offset>=(uint8_t)(sizeof(ee_timers)/sizeof(ee_timers[0][0]))) return; // EEPROM protection
    2962:	80 34       	cpi	r24, 0x40	; 64
    2964:	60 f4       	brcc	.+24     	; 0x297e <eeprom_timers_write_raw+0x24>
    uint16_t eeaddr = (uint16_t)offset * (uint16_t)sizeof(ee_timers[0][0]) + (uint16_t)ee_timers;
    2966:	08 2f       	mov	r16, r24
    2968:	10 e0       	ldi	r17, 0x00	; 0
    296a:	00 0f       	add	r16, r16
    296c:	11 1f       	adc	r17, r17
    296e:	0c 5f       	subi	r16, 0xFC	; 252
    2970:	1f 4f       	sbci	r17, 0xFF	; 255
    EEPROM_write(eeaddr, value&0xff); //litle endian
    2972:	c8 01       	movw	r24, r16
    2974:	5c df       	rcall	.-328    	; 0x282e <EEPROM_write>
    EEPROM_write(eeaddr+1 , (value>>8)); //litle endian
    2976:	c8 01       	movw	r24, r16
    2978:	01 96       	adiw	r24, 0x01	; 1
    297a:	6f 2d       	mov	r22, r15
    297c:	58 df       	rcall	.-336    	; 0x282e <EEPROM_write>
}
    297e:	1f 91       	pop	r17
    2980:	0f 91       	pop	r16
    2982:	ff 90       	pop	r15
    2984:	08 95       	ret

00002986 <clr_show1>:
        }
    }
*/


static void clr_show1(uint8_t seg1) {
    2986:	1f 93       	push	r17
    2988:	18 2f       	mov	r17, r24
    LCD_AllSegments(LCD_MODE_OFF);
    298a:	80 e0       	ldi	r24, 0x00	; 0
    298c:	65 d4       	rcall	.+2250   	; 0x3258 <LCD_AllSegments>
    LCD_SetSeg(seg1, LCD_MODE_ON);
    298e:	81 2f       	mov	r24, r17
    2990:	63 e0       	ldi	r22, 0x03	; 3
    2992:	ae d4       	rcall	.+2396   	; 0x32f0 <LCD_SetSeg>
}
    2994:	1f 91       	pop	r17
    2996:	08 95       	ret

00002998 <show_selected_temperature_type>:
    LCD_SetSeg(seg1, LCD_MODE_ON);
    LCD_SetSeg(seg2, LCD_MODE_ON);
    LCD_SetSeg(seg3, LCD_MODE_ON);
}

static void show_selected_temperature_type (uint8_t type, uint8_t mode) {
    2998:	0f 93       	push	r16
    299a:	1f 93       	push	r17
    299c:	08 2f       	mov	r16, r24
    299e:	16 2f       	mov	r17, r22
    //  temperature0    SNOW         
    //  temperature1         MOON    
    //  temperature2         MOON SUN
    //  temperature3              SUN
    LCD_SetSeg(LCD_SEG_SNOW,((type==temperature0)
    29a0:	81 11       	cpse	r24, r1
    29a2:	60 e0       	ldi	r22, 0x00	; 0
    29a4:	8c e2       	ldi	r24, 0x2C	; 44
    29a6:	a4 d4       	rcall	.+2376   	; 0x32f0 <LCD_SetSeg>
        ?mode:LCD_MODE_OFF));
    LCD_SetSeg(LCD_SEG_MOON,(((type==temperature1)||(type==temperature2))
    29a8:	80 2f       	mov	r24, r16
    29aa:	81 50       	subi	r24, 0x01	; 1
    29ac:	82 30       	cpi	r24, 0x02	; 2
    29ae:	10 f0       	brcs	.+4      	; 0x29b4 <show_selected_temperature_type+0x1c>
    29b0:	60 e0       	ldi	r22, 0x00	; 0
    29b2:	01 c0       	rjmp	.+2      	; 0x29b6 <show_selected_temperature_type+0x1e>
    29b4:	61 2f       	mov	r22, r17
    29b6:	85 e4       	ldi	r24, 0x45	; 69
    29b8:	9b d4       	rcall	.+2358   	; 0x32f0 <LCD_SetSeg>
        ?mode:LCD_MODE_OFF));
    LCD_SetSeg(LCD_SEG_SUN,((type>=temperature2)
    29ba:	02 30       	cpi	r16, 0x02	; 2
    29bc:	08 f4       	brcc	.+2      	; 0x29c0 <show_selected_temperature_type+0x28>
    29be:	10 e0       	ldi	r17, 0x00	; 0
    29c0:	8d e2       	ldi	r24, 0x2D	; 45
    29c2:	61 2f       	mov	r22, r17
    29c4:	95 d4       	rcall	.+2346   	; 0x32f0 <LCD_SetSeg>
        ?mode:LCD_MODE_OFF));
}
    29c6:	1f 91       	pop	r17
    29c8:	0f 91       	pop	r16
    29ca:	08 95       	ret

000029cc <menu_view>:

/*!
 *******************************************************************************
 * \brief menu View
 ******************************************************************************/
void menu_view(bool update) {
    29cc:	1f 93       	push	r17
    29ce:	18 2f       	mov	r17, r24
  switch (menu_state) {
    29d0:	80 91 b7 02 	lds	r24, 0x02B7
    29d4:	e8 2f       	mov	r30, r24
    29d6:	f0 e0       	ldi	r31, 0x00	; 0
    29d8:	e8 31       	cpi	r30, 0x18	; 24
    29da:	f1 05       	cpc	r31, r1
    29dc:	08 f0       	brcs	.+2      	; 0x29e0 <menu_view+0x14>
    29de:	c6 c1       	rjmp	.+908    	; 0x2d6c <menu_view+0x3a0>
    29e0:	ea 58       	subi	r30, 0x8A	; 138
    29e2:	ff 4f       	sbci	r31, 0xFF	; 255
    29e4:	c5 c7       	rjmp	.+3978   	; 0x3970 <__tablejump2__>
    case menu_startup:
        LCD_AllSegments(LCD_MODE_ON);                   // all segments on
    29e6:	83 e0       	ldi	r24, 0x03	; 3
    29e8:	37 d4       	rcall	.+2158   	; 0x3258 <LCD_AllSegments>
    29ea:	c0 c1       	rjmp	.+896    	; 0x2d6c <menu_view+0x3a0>
        break;
    case menu_version:
        clr_show1(LCD_SEG_COL1);
    29ec:	8b e3       	ldi	r24, 0x3B	; 59
    29ee:	cb df       	rcall	.-106    	; 0x2986 <clr_show1>
        LCD_PrintHexW(VERSION_N,LCD_MODE_ON);
    29f0:	81 e0       	ldi	r24, 0x01	; 1
    29f2:	91 e0       	ldi	r25, 0x01	; 1
    29f4:	63 e0       	ldi	r22, 0x03	; 3
    29f6:	6b d5       	rcall	.+2774   	; 0x34ce <LCD_PrintHexW>
    29f8:	b9 c1       	rjmp	.+882    	; 0x2d6c <menu_view+0x3a0>
        break; 
#if (! REMOTE_SETTING_ONLY)
	case menu_set_year:
        LCD_AllSegments(LCD_MODE_OFF); // all segments off
    29fa:	80 e0       	ldi	r24, 0x00	; 0
    29fc:	2d d4       	rcall	.+2138   	; 0x3258 <LCD_AllSegments>
        LCD_PrintDecW(RTC_GetYearYYYY(),LCD_MODE_BLINK_1);
    29fe:	80 91 10 01 	lds	r24, 0x0110
    2a02:	90 e0       	ldi	r25, 0x00	; 0
    2a04:	80 53       	subi	r24, 0x30	; 48
    2a06:	98 4f       	sbci	r25, 0xF8	; 248
    2a08:	61 e0       	ldi	r22, 0x01	; 1
    2a0a:	09 d5       	rcall	.+2578   	; 0x341e <LCD_PrintDecW>
    2a0c:	af c1       	rjmp	.+862    	; 0x2d6c <menu_view+0x3a0>
       break;
    case menu_set_month:
    case menu_set_day:
        clr_show1(LCD_SEG_COL1);           // decimal point
    2a0e:	8b e3       	ldi	r24, 0x3B	; 59
    2a10:	ba df       	rcall	.-140    	; 0x2986 <clr_show1>
        LCD_PrintDec(RTC_GetMonth(), 0, ((menu_state==menu_set_month)?LCD_MODE_BLINK_1:LCD_MODE_ON));
    2a12:	90 91 11 01 	lds	r25, 0x0111
    2a16:	80 91 b7 02 	lds	r24, 0x02B7
    2a1a:	81 31       	cpi	r24, 0x11	; 17
    2a1c:	11 f0       	breq	.+4      	; 0x2a22 <menu_view+0x56>
    2a1e:	43 e0       	ldi	r20, 0x03	; 3
    2a20:	01 c0       	rjmp	.+2      	; 0x2a24 <menu_view+0x58>
    2a22:	41 e0       	ldi	r20, 0x01	; 1
    2a24:	89 2f       	mov	r24, r25
    2a26:	60 e0       	ldi	r22, 0x00	; 0
    2a28:	e0 d4       	rcall	.+2496   	; 0x33ea <LCD_PrintDec>
        LCD_PrintDec(RTC_GetDay(), 2, ((menu_state==menu_set_day)?LCD_MODE_BLINK_1:LCD_MODE_ON));
    2a2a:	90 91 12 01 	lds	r25, 0x0112
    2a2e:	80 91 b7 02 	lds	r24, 0x02B7
    2a32:	82 31       	cpi	r24, 0x12	; 18
    2a34:	11 f0       	breq	.+4      	; 0x2a3a <menu_view+0x6e>
    2a36:	43 e0       	ldi	r20, 0x03	; 3
    2a38:	01 c0       	rjmp	.+2      	; 0x2a3c <menu_view+0x70>
    2a3a:	41 e0       	ldi	r20, 0x01	; 1
    2a3c:	89 2f       	mov	r24, r25
    2a3e:	62 e0       	ldi	r22, 0x02	; 2
    2a40:	21 c0       	rjmp	.+66     	; 0x2a84 <menu_view+0xb8>
       break;
    case menu_set_hour:
    case menu_set_minute: 
    case menu_home4: // time
        if (update) clr_show2(LCD_SEG_COL1,LCD_SEG_COL2);
    2a42:	11 23       	and	r17, r17
    2a44:	41 f0       	breq	.+16     	; 0x2a56 <menu_view+0x8a>
    LCD_AllSegments(LCD_MODE_OFF);
    LCD_SetSeg(seg1, LCD_MODE_ON);
}

static void clr_show2(uint8_t seg1, uint8_t seg2) {
    LCD_AllSegments(LCD_MODE_OFF);
    2a46:	80 e0       	ldi	r24, 0x00	; 0
    2a48:	07 d4       	rcall	.+2062   	; 0x3258 <LCD_AllSegments>
    LCD_SetSeg(seg1, LCD_MODE_ON);
    2a4a:	8b e3       	ldi	r24, 0x3B	; 59
    2a4c:	63 e0       	ldi	r22, 0x03	; 3
    2a4e:	50 d4       	rcall	.+2208   	; 0x32f0 <LCD_SetSeg>
    LCD_SetSeg(seg2, LCD_MODE_ON);
    2a50:	83 e2       	ldi	r24, 0x23	; 35
    2a52:	63 e0       	ldi	r22, 0x03	; 3
    2a54:	4d d4       	rcall	.+2202   	; 0x32f0 <LCD_SetSeg>
       break;
    case menu_set_hour:
    case menu_set_minute: 
    case menu_home4: // time
        if (update) clr_show2(LCD_SEG_COL1,LCD_SEG_COL2);
        LCD_PrintDec(RTC_GetHour(), 2, ((menu_state == menu_set_hour) ? LCD_MODE_BLINK_1 : LCD_MODE_ON));
    2a56:	90 91 13 01 	lds	r25, 0x0113
    2a5a:	80 91 b7 02 	lds	r24, 0x02B7
    2a5e:	83 31       	cpi	r24, 0x13	; 19
    2a60:	11 f0       	breq	.+4      	; 0x2a66 <menu_view+0x9a>
    2a62:	43 e0       	ldi	r20, 0x03	; 3
    2a64:	01 c0       	rjmp	.+2      	; 0x2a68 <menu_view+0x9c>
    2a66:	41 e0       	ldi	r20, 0x01	; 1
    2a68:	89 2f       	mov	r24, r25
    2a6a:	62 e0       	ldi	r22, 0x02	; 2
    2a6c:	be d4       	rcall	.+2428   	; 0x33ea <LCD_PrintDec>
        LCD_PrintDec(RTC_GetMinute(), 0, ((menu_state == menu_set_minute) ? LCD_MODE_BLINK_1 : LCD_MODE_ON));
    2a6e:	90 91 14 01 	lds	r25, 0x0114
    2a72:	80 91 b7 02 	lds	r24, 0x02B7
    2a76:	84 31       	cpi	r24, 0x14	; 20
    2a78:	11 f0       	breq	.+4      	; 0x2a7e <menu_view+0xb2>
    2a7a:	43 e0       	ldi	r20, 0x03	; 3
    2a7c:	01 c0       	rjmp	.+2      	; 0x2a80 <menu_view+0xb4>
    2a7e:	41 e0       	ldi	r20, 0x01	; 1
    2a80:	89 2f       	mov	r24, r25
    2a82:	60 e0       	ldi	r22, 0x00	; 0
    2a84:	b2 d4       	rcall	.+2404   	; 0x33ea <LCD_PrintDec>
    2a86:	72 c1       	rjmp	.+740    	; 0x2d6c <menu_view+0x3a0>
        LCD_PrintDec(RTC_GetMinute(), 0, LCD_MODE_ON);
       break;                                       
#endif
#if MENU_SHOW_BATTERY
	case menu_home5:        // battery 
		LCD_AllSegments(LCD_MODE_OFF);
    2a88:	80 e0       	ldi	r24, 0x00	; 0
    2a8a:	e6 d3       	rcall	.+1996   	; 0x3258 <LCD_AllSegments>
        LCD_PrintDec(bat_average/100, 2, LCD_MODE_ON);
    2a8c:	80 91 24 02 	lds	r24, 0x0224
    2a90:	90 91 25 02 	lds	r25, 0x0225
    2a94:	64 e6       	ldi	r22, 0x64	; 100
    2a96:	70 e0       	ldi	r23, 0x00	; 0
    2a98:	e4 d6       	rcall	.+3528   	; 0x3862 <__divmodhi4>
    2a9a:	86 2f       	mov	r24, r22
    2a9c:	62 e0       	ldi	r22, 0x02	; 2
    2a9e:	43 e0       	ldi	r20, 0x03	; 3
    2aa0:	a4 d4       	rcall	.+2376   	; 0x33ea <LCD_PrintDec>
        LCD_PrintDec(bat_average%100, 0, LCD_MODE_ON);
    2aa2:	80 91 24 02 	lds	r24, 0x0224
    2aa6:	90 91 25 02 	lds	r25, 0x0225
    2aaa:	64 e6       	ldi	r22, 0x64	; 100
    2aac:	70 e0       	ldi	r23, 0x00	; 0
    2aae:	d9 d6       	rcall	.+3506   	; 0x3862 <__divmodhi4>
    2ab0:	60 e0       	ldi	r22, 0x00	; 0
    2ab2:	43 e0       	ldi	r20, 0x03	; 3
    2ab4:	e7 cf       	rjmp	.-50     	; 0x2a84 <menu_view+0xb8>
       break;        
#endif                                                       
		

    case menu_home: // wanted temp / error code / adaptation status
        if (MOTOR_calibration_step>0) {
    2ab6:	80 91 00 01 	lds	r24, 0x0100
    2aba:	18 16       	cp	r1, r24
    2abc:	d4 f4       	brge	.+52     	; 0x2af2 <menu_view+0x126>
            clr_show1(LCD_SEG_BAR24);
    2abe:	8b e0       	ldi	r24, 0x0B	; 11
    2ac0:	62 df       	rcall	.-316    	; 0x2986 <clr_show1>
            LCD_PrintChar(LCD_CHAR_A,3,LCD_MODE_ON);
    2ac2:	8a e0       	ldi	r24, 0x0A	; 10
    2ac4:	63 e0       	ldi	r22, 0x03	; 3
    2ac6:	43 e0       	ldi	r20, 0x03	; 3
    2ac8:	62 d4       	rcall	.+2244   	; 0x338e <LCD_PrintChar>
            if (MOTOR_ManuCalibration==-1) LCD_PrintChar(LCD_CHAR_d,2,LCD_MODE_ON);
    2aca:	80 91 a3 02 	lds	r24, 0x02A3
    2ace:	90 91 a4 02 	lds	r25, 0x02A4
    2ad2:	8f 5f       	subi	r24, 0xFF	; 255
    2ad4:	9f 4f       	sbci	r25, 0xFF	; 255
    2ad6:	21 f4       	brne	.+8      	; 0x2ae0 <menu_view+0x114>
    2ad8:	8d e0       	ldi	r24, 0x0D	; 13
    2ada:	62 e0       	ldi	r22, 0x02	; 2
    2adc:	43 e0       	ldi	r20, 0x03	; 3
    2ade:	57 d4       	rcall	.+2222   	; 0x338e <LCD_PrintChar>
            LCD_PrintChar(MOTOR_calibration_step%10, 0, LCD_MODE_ON);
    2ae0:	80 91 00 01 	lds	r24, 0x0100
    2ae4:	6a e0       	ldi	r22, 0x0A	; 10
    2ae6:	9c d6       	rcall	.+3384   	; 0x3820 <__divmodqi4>
    2ae8:	89 2f       	mov	r24, r25
    2aea:	60 e0       	ldi	r22, 0x00	; 0
    2aec:	43 e0       	ldi	r20, 0x03	; 3
    2aee:	4f d4       	rcall	.+2206   	; 0x338e <LCD_PrintChar>
    2af0:	4a c0       	rjmp	.+148    	; 0x2b86 <menu_view+0x1ba>
            goto MENU_COMMON_STATUS; // optimization
        } else {
            if (update) clr_show1(LCD_SEG_BAR24);
    2af2:	11 23       	and	r17, r17
    2af4:	11 f0       	breq	.+4      	; 0x2afa <menu_view+0x12e>
    2af6:	8b e0       	ldi	r24, 0x0B	; 11
    2af8:	46 df       	rcall	.-372    	; 0x2986 <clr_show1>
            if (CTL_error!=0) {
    2afa:	80 91 37 01 	lds	r24, 0x0137
    2afe:	88 23       	and	r24, r24
    2b00:	b9 f0       	breq	.+46     	; 0x2b30 <menu_view+0x164>
                if (CTL_error & CTL_ERR_BATT_LOW) {
    2b02:	87 ff       	sbrs	r24, 7
    2b04:	03 c0       	rjmp	.+6      	; 0x2b0c <menu_view+0x140>
                    LCD_PrintStringID(LCD_STRING_BAtt,LCD_MODE_BLINK_1);
    2b06:	8f e0       	ldi	r24, 0x0F	; 15
    2b08:	61 e0       	ldi	r22, 0x01	; 1
    2b0a:	10 c0       	rjmp	.+32     	; 0x2b2c <menu_view+0x160>
                } else if (CTL_error & CTL_ERR_MONTAGE) {
    2b0c:	82 ff       	sbrs	r24, 2
    2b0e:	02 c0       	rjmp	.+4      	; 0x2b14 <menu_view+0x148>
                    LCD_PrintStringID(LCD_STRING_E2,LCD_MODE_ON);
    2b10:	80 e1       	ldi	r24, 0x10	; 16
    2b12:	0b c0       	rjmp	.+22     	; 0x2b2a <menu_view+0x15e>
                } else if (CTL_error & CTL_ERR_MOTOR) {
    2b14:	83 ff       	sbrs	r24, 3
    2b16:	02 c0       	rjmp	.+4      	; 0x2b1c <menu_view+0x150>
                    LCD_PrintStringID(LCD_STRING_E3,LCD_MODE_ON);
    2b18:	81 e1       	ldi	r24, 0x11	; 17
    2b1a:	07 c0       	rjmp	.+14     	; 0x2b2a <menu_view+0x15e>
                } else if (CTL_error & CTL_ERR_BATT_WARNING) {
    2b1c:	86 ff       	sbrs	r24, 6
    2b1e:	02 c0       	rjmp	.+4      	; 0x2b24 <menu_view+0x158>
                    LCD_PrintStringID(LCD_STRING_BAtt,LCD_MODE_ON);
    2b20:	8f e0       	ldi	r24, 0x0F	; 15
    2b22:	03 c0       	rjmp	.+6      	; 0x2b2a <menu_view+0x15e>
                } else if (CTL_error & CTL_ERR_RFM_SYNC) {
    2b24:	84 ff       	sbrs	r24, 4
    2b26:	2f c0       	rjmp	.+94     	; 0x2b86 <menu_view+0x1ba>
                    LCD_PrintStringID(LCD_STRING_E4,LCD_MODE_ON);
    2b28:	82 e1       	ldi	r24, 0x12	; 18
    2b2a:	63 e0       	ldi	r22, 0x03	; 3
    2b2c:	df d4       	rcall	.+2494   	; 0x34ec <LCD_PrintStringID>
    2b2e:	2b c0       	rjmp	.+86     	; 0x2b86 <menu_view+0x1ba>
                }
                goto MENU_COMMON_STATUS; // optimization
            } else {
                if (mode_window()) {
    2b30:	80 91 36 01 	lds	r24, 0x0136
    2b34:	88 23       	and	r24, r24
    2b36:	11 f0       	breq	.+4      	; 0x2b3c <menu_view+0x170>
                    LCD_PrintStringID(LCD_STRING_OPEn,LCD_MODE_ON);
    2b38:	8e e0       	ldi	r24, 0x0E	; 14
    2b3a:	f7 cf       	rjmp	.-18     	; 0x2b2a <menu_view+0x15e>
                }
            }
        } 
        // do not use break at this position / optimization
    case menu_home_no_alter: // wanted temp
       	if (update) clr_show1(LCD_SEG_BAR24);
    2b3c:	11 23       	and	r17, r17
    2b3e:	11 f0       	breq	.+4      	; 0x2b44 <menu_view+0x178>
    2b40:	8b e0       	ldi	r24, 0x0B	; 11
    2b42:	21 df       	rcall	.-446    	; 0x2986 <clr_show1>
   	if (CTL_mode_auto >= 2){
    2b44:	80 91 0b 01 	lds	r24, 0x010B
    2b48:	82 30       	cpi	r24, 0x02	; 2
    2b4a:	c8 f0       	brcs	.+50     	; 0x2b7e <menu_view+0x1b2>
		if ( wheel_tick_counter < -12){
    2b4c:	80 91 71 02 	lds	r24, 0x0271
    2b50:	84 3f       	cpi	r24, 0xF4	; 244
    2b52:	14 f4       	brge	.+4      	; 0x2b58 <menu_view+0x18c>
			LCD_PrintStringID(LCD_STRING_4xminus,LCD_MODE_ON);
    2b54:	89 e0       	ldi	r24, 0x09	; 9
    2b56:	e9 cf       	rjmp	.-46     	; 0x2b2a <menu_view+0x15e>
		}
		else if (wheel_tick_counter < 0){
    2b58:	87 ff       	sbrs	r24, 7
    2b5a:	02 c0       	rjmp	.+4      	; 0x2b60 <menu_view+0x194>
			LCD_PrintStringID(LCD_STRING_BigMinus,LCD_MODE_ON);
    2b5c:	86 e1       	ldi	r24, 0x16	; 22
    2b5e:	e5 cf       	rjmp	.-54     	; 0x2b2a <menu_view+0x15e>
		}
		else if (wheel_tick_counter > 12){
    2b60:	8d 30       	cpi	r24, 0x0D	; 13
    2b62:	14 f0       	brlt	.+4      	; 0x2b68 <menu_view+0x19c>
			LCD_PrintStringID(LCD_STRING_PlusPlus,LCD_MODE_ON);
    2b64:	85 e1       	ldi	r24, 0x15	; 21
    2b66:	e1 cf       	rjmp	.-62     	; 0x2b2a <menu_view+0x15e>
		}
		else if (wheel_tick_counter > 0){
    2b68:	88 23       	and	r24, r24
    2b6a:	11 f0       	breq	.+4      	; 0x2b70 <menu_view+0x1a4>
			LCD_PrintStringID(LCD_STRING_Plus,LCD_MODE_ON);
    2b6c:	84 e1       	ldi	r24, 0x14	; 20
    2b6e:	dd cf       	rjmp	.-70     	; 0x2b2a <menu_view+0x15e>
		}
		else{
			LCD_PrintTempInt(temp_average,LCD_MODE_ON);
    2b70:	80 91 26 02 	lds	r24, 0x0226
    2b74:	90 91 27 02 	lds	r25, 0x0227
    2b78:	63 e0       	ldi	r22, 0x03	; 3
    2b7a:	05 d5       	rcall	.+2570   	; 0x3586 <LCD_PrintTempInt>
    2b7c:	04 c0       	rjmp	.+8      	; 0x2b86 <menu_view+0x1ba>
		}
	}
	else {
		LCD_PrintTemp(CTL_temp_wanted,LCD_MODE_ON);
    2b7e:	80 91 03 01 	lds	r24, 0x0103
    2b82:	63 e0       	ldi	r22, 0x03	; 3
    2b84:	d2 d4       	rcall	.+2468   	; 0x352a <LCD_PrintTemp>
*/
        //! \note hourbar status calculation is complex we don't want calculate it every view, use chache
        MENU_COMMON_STATUS:
        //LCD_SetSeg(LCD_SEG_AUTO, (CTL_test_auto()?LCD_MODE_ON:LCD_MODE_OFF));
        //LCD_SetSeg(LCD_SEG_MANU, (CTL_mode_auto?LCD_MODE_OFF:LCD_MODE_ON));
		switch(CTL_mode_auto){
    2b86:	80 91 0b 01 	lds	r24, 0x010B
    2b8a:	84 30       	cpi	r24, 0x04	; 4
    2b8c:	38 f4       	brcc	.+14     	; 0x2b9c <menu_view+0x1d0>
    2b8e:	82 30       	cpi	r24, 0x02	; 2
    2b90:	e8 f4       	brcc	.+58     	; 0x2bcc <menu_view+0x200>
    2b92:	88 23       	and	r24, r24
    2b94:	61 f0       	breq	.+24     	; 0x2bae <menu_view+0x1e2>
    2b96:	81 30       	cpi	r24, 0x01	; 1
    2b98:	11 f5       	brne	.+68     	; 0x2bde <menu_view+0x212>
    2b9a:	03 c0       	rjmp	.+6      	; 0x2ba2 <menu_view+0x1d6>
    2b9c:	84 30       	cpi	r24, 0x04	; 4
    2b9e:	f9 f4       	brne	.+62     	; 0x2bde <menu_view+0x212>
    2ba0:	0c c0       	rjmp	.+24     	; 0x2bba <menu_view+0x1ee>
			case manual_timers:
				LCD_SetSeg(LCD_SEG_AUTO, LCD_MODE_OFF);
    2ba2:	88 e1       	ldi	r24, 0x18	; 24
    2ba4:	60 e0       	ldi	r22, 0x00	; 0
    2ba6:	a4 d3       	rcall	.+1864   	; 0x32f0 <LCD_SetSeg>
				LCD_SetSeg(LCD_SEG_MANU, LCD_MODE_ON);
    2ba8:	82 e3       	ldi	r24, 0x32	; 50
    2baa:	63 e0       	ldi	r22, 0x03	; 3
    2bac:	0b c0       	rjmp	.+22     	; 0x2bc4 <menu_view+0x1f8>
				LCD_SetSeg(LCD_SEG_PROG, LCD_MODE_ON);
				break;
			case manual_target:
				LCD_SetSeg(LCD_SEG_AUTO, LCD_MODE_OFF);
    2bae:	88 e1       	ldi	r24, 0x18	; 24
    2bb0:	60 e0       	ldi	r22, 0x00	; 0
    2bb2:	9e d3       	rcall	.+1852   	; 0x32f0 <LCD_SetSeg>
				LCD_SetSeg(LCD_SEG_MANU, LCD_MODE_ON);
    2bb4:	82 e3       	ldi	r24, 0x32	; 50
    2bb6:	63 e0       	ldi	r22, 0x03	; 3
    2bb8:	0e c0       	rjmp	.+28     	; 0x2bd6 <menu_view+0x20a>
				LCD_SetSeg(LCD_SEG_PROG, LCD_MODE_OFF);
				break;
			case auto_timers:
				LCD_SetSeg(LCD_SEG_AUTO, LCD_MODE_ON);
    2bba:	88 e1       	ldi	r24, 0x18	; 24
    2bbc:	63 e0       	ldi	r22, 0x03	; 3
    2bbe:	98 d3       	rcall	.+1840   	; 0x32f0 <LCD_SetSeg>
				LCD_SetSeg(LCD_SEG_MANU, LCD_MODE_OFF);
    2bc0:	82 e3       	ldi	r24, 0x32	; 50
    2bc2:	60 e0       	ldi	r22, 0x00	; 0
    2bc4:	95 d3       	rcall	.+1834   	; 0x32f0 <LCD_SetSeg>
				LCD_SetSeg(LCD_SEG_PROG, LCD_MODE_ON);
    2bc6:	8a e1       	ldi	r24, 0x1A	; 26
    2bc8:	63 e0       	ldi	r22, 0x03	; 3
    2bca:	08 c0       	rjmp	.+16     	; 0x2bdc <menu_view+0x210>
				break;
			case auto_target:
			case auto_valve:
				LCD_SetSeg(LCD_SEG_AUTO, LCD_MODE_ON);
    2bcc:	88 e1       	ldi	r24, 0x18	; 24
    2bce:	63 e0       	ldi	r22, 0x03	; 3
    2bd0:	8f d3       	rcall	.+1822   	; 0x32f0 <LCD_SetSeg>
				LCD_SetSeg(LCD_SEG_MANU, LCD_MODE_OFF);
    2bd2:	82 e3       	ldi	r24, 0x32	; 50
    2bd4:	60 e0       	ldi	r22, 0x00	; 0
    2bd6:	8c d3       	rcall	.+1816   	; 0x32f0 <LCD_SetSeg>
				LCD_SetSeg(LCD_SEG_PROG, LCD_MODE_OFF);
    2bd8:	8a e1       	ldi	r24, 0x1A	; 26
    2bda:	60 e0       	ldi	r22, 0x00	; 0
    2bdc:	89 d3       	rcall	.+1810   	; 0x32f0 <LCD_SetSeg>
				break;
		}

	       LCD_HourBarBitmap(hourbar_buff);
    2bde:	60 91 b3 02 	lds	r22, 0x02B3
    2be2:	70 91 b4 02 	lds	r23, 0x02B4
    2be6:	80 91 b5 02 	lds	r24, 0x02B5
    2bea:	90 91 b6 02 	lds	r25, 0x02B6
    2bee:	65 d3       	rcall	.+1738   	; 0x32ba <LCD_HourBarBitmap>
    2bf0:	bd c0       	rjmp	.+378    	; 0x2d6c <menu_view+0x3a0>
	       break;

    case menu_home2: // real temperature
   	if (CTL_mode_auto >= 2){
    2bf2:	80 91 0b 01 	lds	r24, 0x010B
    2bf6:	82 30       	cpi	r24, 0x02	; 2
    2bf8:	20 f0       	brcs	.+8      	; 0x2c02 <menu_view+0x236>
		menu_state++;
    2bfa:	89 e0       	ldi	r24, 0x09	; 9
    2bfc:	80 93 b7 02 	sts	0x02B7, r24
    2c00:	0b c0       	rjmp	.+22     	; 0x2c18 <menu_view+0x24c>
	}
	else {
        	if (update) clr_show1(LCD_SEG_COL1);           // decimal point
    2c02:	11 23       	and	r17, r17
    2c04:	11 f0       	breq	.+4      	; 0x2c0a <menu_view+0x23e>
    2c06:	8b e3       	ldi	r24, 0x3B	; 59
    2c08:	be de       	rcall	.-644    	; 0x2986 <clr_show1>
        	LCD_PrintTempInt(temp_average,LCD_MODE_ON);
    2c0a:	80 91 26 02 	lds	r24, 0x0226
    2c0e:	90 91 27 02 	lds	r25, 0x0227
    2c12:	63 e0       	ldi	r22, 0x03	; 3
    2c14:	b8 d4       	rcall	.+2416   	; 0x3586 <LCD_PrintTempInt>
    2c16:	aa c0       	rjmp	.+340    	; 0x2d6c <menu_view+0x3a0>
        	break;
	}

    case menu_home3: // valve pos
        if (update) LCD_AllSegments(LCD_MODE_OFF);
    2c18:	11 23       	and	r17, r17
    2c1a:	11 f0       	breq	.+4      	; 0x2c20 <menu_view+0x254>
    2c1c:	80 e0       	ldi	r24, 0x00	; 0
    2c1e:	1c d3       	rcall	.+1592   	; 0x3258 <LCD_AllSegments>
        // LCD_PrintDec3(MOTOR_GetPosPercent(), 1 ,LCD_MODE_ON);
        // LCD_PrintChar(LCD_CHAR_2lines,0,LCD_MODE_ON);
        {
            uint8_t prc = MOTOR_GetPosPercent();
    2c20:	0e 94 69 01 	call	0x2d2	; 0x2d2 <MOTOR_GetPosPercent>
            if (prc<=100) {
    2c24:	85 36       	cpi	r24, 0x65	; 101
    2c26:	38 f4       	brcc	.+14     	; 0x2c36 <menu_view+0x26a>
                LCD_PrintDec3(MOTOR_GetPosPercent(), 0 ,LCD_MODE_ON);
    2c28:	0e 94 69 01 	call	0x2d2	; 0x2d2 <MOTOR_GetPosPercent>
    2c2c:	90 e0       	ldi	r25, 0x00	; 0
    2c2e:	60 e0       	ldi	r22, 0x00	; 0
    2c30:	43 e0       	ldi	r20, 0x03	; 3
    2c32:	13 d4       	rcall	.+2086   	; 0x345a <LCD_PrintDec3>
    2c34:	9b c0       	rjmp	.+310    	; 0x2d6c <menu_view+0x3a0>
            } else {
                LCD_PrintStringID(LCD_STRING_minusCminus,LCD_MODE_ON);
    2c36:	8a e0       	ldi	r24, 0x0A	; 10
    2c38:	5f c0       	rjmp	.+190    	; 0x2cf8 <menu_view+0x32c>
            }
        }
        break;
#if (! REMOTE_SETTING_ONLY)
    case menu_set_timmer_dow:
        clr_show1(LCD_SEG_PROG); // all segments off
    2c3a:	8a e1       	ldi	r24, 0x1A	; 26
    2c3c:	a4 de       	rcall	.-696    	; 0x2986 <clr_show1>
        LCD_PrintDayOfWeek(menu_set_dow, LCD_MODE_BLINK_1);
    2c3e:	80 91 75 02 	lds	r24, 0x0275
    2c42:	61 e0       	ldi	r22, 0x01	; 1
    2c44:	5a c0       	rjmp	.+180    	; 0x2cfa <menu_view+0x32e>
    LCD_SetSeg(seg1, LCD_MODE_ON);
    LCD_SetSeg(seg2, LCD_MODE_ON);
}

static void clr_show3(uint8_t seg1, uint8_t seg2, uint8_t seg3) {
    LCD_AllSegments(LCD_MODE_OFF);
    2c46:	80 e0       	ldi	r24, 0x00	; 0
    2c48:	07 d3       	rcall	.+1550   	; 0x3258 <LCD_AllSegments>
    LCD_SetSeg(seg1, LCD_MODE_ON);
    2c4a:	8b e3       	ldi	r24, 0x3B	; 59
    2c4c:	63 e0       	ldi	r22, 0x03	; 3
    2c4e:	50 d3       	rcall	.+1696   	; 0x32f0 <LCD_SetSeg>
    LCD_SetSeg(seg2, LCD_MODE_ON);
    2c50:	83 e2       	ldi	r24, 0x23	; 35
    2c52:	63 e0       	ldi	r22, 0x03	; 3
    2c54:	4d d3       	rcall	.+1690   	; 0x32f0 <LCD_SetSeg>
    LCD_SetSeg(seg3, LCD_MODE_ON);
    2c56:	8a e1       	ldi	r24, 0x1A	; 26
    2c58:	63 e0       	ldi	r22, 0x03	; 3
    2c5a:	4a d3       	rcall	.+1684   	; 0x32f0 <LCD_SetSeg>
        break;
    case menu_set_timmer:
        //! \todo calculate "hourbar" status, actual position in mode LCD_MODE_BLINK_1
        
        clr_show3(LCD_SEG_COL1,LCD_SEG_COL2,LCD_SEG_PROG);
        timmers_patch_offset=timers_get_raw_index(menu_set_dow, menu_set_slot);
    2c5c:	80 91 75 02 	lds	r24, 0x0275
    2c60:	98 2f       	mov	r25, r24
    2c62:	99 0f       	add	r25, r25
    2c64:	99 0f       	add	r25, r25
    2c66:	99 0f       	add	r25, r25
    2c68:	20 91 79 02 	lds	r18, 0x0279
    2c6c:	92 0f       	add	r25, r18
    2c6e:	90 93 18 01 	sts	0x0118, r25
        timmers_patch_data = menu_set_time +  ((uint16_t)menu_set_mode<<12);
    2c72:	90 91 78 02 	lds	r25, 0x0278
    2c76:	39 2f       	mov	r19, r25
    2c78:	32 95       	swap	r19
    2c7a:	30 7f       	andi	r19, 0xF0	; 240
    2c7c:	20 e0       	ldi	r18, 0x00	; 0
    2c7e:	40 91 76 02 	lds	r20, 0x0276
    2c82:	50 91 77 02 	lds	r21, 0x0277
    2c86:	24 0f       	add	r18, r20
    2c88:	35 1f       	adc	r19, r21
    2c8a:	30 93 89 02 	sts	0x0289, r19
    2c8e:	20 93 88 02 	sts	0x0288, r18
        LCD_HourBarBitmap(RTC_DowTimerGetHourBar(menu_set_dow));
    2c92:	54 d8       	rcall	.-3928   	; 0x1d3c <RTC_DowTimerGetHourBar>
    2c94:	12 d3       	rcall	.+1572   	; 0x32ba <LCD_HourBarBitmap>
        timmers_patch_offset=0xff;
    2c96:	8f ef       	ldi	r24, 0xFF	; 255
    2c98:	80 93 18 01 	sts	0x0118, r24
        LCD_SetHourBarSeg(menu_set_time/60, LCD_MODE_BLINK_1);
    2c9c:	80 91 76 02 	lds	r24, 0x0276
    2ca0:	90 91 77 02 	lds	r25, 0x0277
    2ca4:	6c e3       	ldi	r22, 0x3C	; 60
    2ca6:	70 e0       	ldi	r23, 0x00	; 0
    2ca8:	c8 d5       	rcall	.+2960   	; 0x383a <__udivmodhi4>
    2caa:	86 2f       	mov	r24, r22
    2cac:	61 e0       	ldi	r22, 0x01	; 1
    2cae:	68 d3       	rcall	.+1744   	; 0x3380 <LCD_SetHourBarSeg>
        if (menu_set_time < 24*60) {
    2cb0:	80 91 76 02 	lds	r24, 0x0276
    2cb4:	90 91 77 02 	lds	r25, 0x0277
    2cb8:	25 e0       	ldi	r18, 0x05	; 5
    2cba:	80 3a       	cpi	r24, 0xA0	; 160
    2cbc:	92 07       	cpc	r25, r18
    2cbe:	90 f4       	brcc	.+36     	; 0x2ce4 <menu_view+0x318>
            LCD_PrintDec(menu_set_time/60, 2, LCD_MODE_BLINK_1);
    2cc0:	6c e3       	ldi	r22, 0x3C	; 60
    2cc2:	70 e0       	ldi	r23, 0x00	; 0
    2cc4:	ba d5       	rcall	.+2932   	; 0x383a <__udivmodhi4>
    2cc6:	86 2f       	mov	r24, r22
    2cc8:	62 e0       	ldi	r22, 0x02	; 2
    2cca:	41 e0       	ldi	r20, 0x01	; 1
    2ccc:	8e d3       	rcall	.+1820   	; 0x33ea <LCD_PrintDec>
            LCD_PrintDec(menu_set_time%60, 0, LCD_MODE_BLINK_1);        
    2cce:	80 91 76 02 	lds	r24, 0x0276
    2cd2:	90 91 77 02 	lds	r25, 0x0277
    2cd6:	6c e3       	ldi	r22, 0x3C	; 60
    2cd8:	70 e0       	ldi	r23, 0x00	; 0
    2cda:	af d5       	rcall	.+2910   	; 0x383a <__udivmodhi4>
    2cdc:	60 e0       	ldi	r22, 0x00	; 0
    2cde:	41 e0       	ldi	r20, 0x01	; 1
    2ce0:	84 d3       	rcall	.+1800   	; 0x33ea <LCD_PrintDec>
    2ce2:	03 c0       	rjmp	.+6      	; 0x2cea <menu_view+0x31e>
        } else {
            LCD_PrintStringID(LCD_STRING_4xminus,LCD_MODE_BLINK_1);
    2ce4:	89 e0       	ldi	r24, 0x09	; 9
    2ce6:	61 e0       	ldi	r22, 0x01	; 1
    2ce8:	01 d4       	rcall	.+2050   	; 0x34ec <LCD_PrintStringID>
        }
        show_selected_temperature_type(menu_set_mode,LCD_MODE_BLINK_1);
    2cea:	80 91 78 02 	lds	r24, 0x0278
    2cee:	61 e0       	ldi	r22, 0x01	; 1
    2cf0:	3c c0       	rjmp	.+120    	; 0x2d6a <menu_view+0x39e>
        break;                                                             
#endif
    case menu_lock:        // "bloc" message
        LCD_AllSegments(LCD_MODE_OFF); // all segments off
    2cf2:	80 e0       	ldi	r24, 0x00	; 0
    2cf4:	b1 d2       	rcall	.+1378   	; 0x3258 <LCD_AllSegments>
        LCD_PrintStringID(LCD_STRING_bloc,LCD_MODE_ON);
    2cf6:	88 e0       	ldi	r24, 0x08	; 8
    2cf8:	63 e0       	ldi	r22, 0x03	; 3
    2cfa:	f8 d3       	rcall	.+2032   	; 0x34ec <LCD_PrintStringID>
    2cfc:	37 c0       	rjmp	.+110    	; 0x2d6c <menu_view+0x3a0>
        break;
    case menu_service1: 
    case menu_service2:
        // service menu; left side index, right value
        LCD_AllSegments(LCD_MODE_ON);
    2cfe:	83 e0       	ldi	r24, 0x03	; 3
    2d00:	ab d2       	rcall	.+1366   	; 0x3258 <LCD_AllSegments>
        LCD_PrintHex(service_idx, 2, ((menu_state == menu_service1) ? LCD_MODE_BLINK_1 : LCD_MODE_ON));
    2d02:	90 91 1a 01 	lds	r25, 0x011A
    2d06:	80 91 b7 02 	lds	r24, 0x02B7
    2d0a:	8d 30       	cpi	r24, 0x0D	; 13
    2d0c:	11 f0       	breq	.+4      	; 0x2d12 <menu_view+0x346>
    2d0e:	43 e0       	ldi	r20, 0x03	; 3
    2d10:	01 c0       	rjmp	.+2      	; 0x2d14 <menu_view+0x348>
    2d12:	41 e0       	ldi	r20, 0x01	; 1
    2d14:	89 2f       	mov	r24, r25
    2d16:	62 e0       	ldi	r22, 0x02	; 2
    2d18:	c5 d3       	rcall	.+1930   	; 0x34a4 <LCD_PrintHex>
        LCD_PrintHex(config_raw[service_idx], 0, ((menu_state == menu_service2) ? LCD_MODE_BLINK_1 : LCD_MODE_ON));
    2d1a:	e0 91 1a 01 	lds	r30, 0x011A
    2d1e:	f0 e0       	ldi	r31, 0x00	; 0
    2d20:	e6 57       	subi	r30, 0x76	; 118
    2d22:	fd 4f       	sbci	r31, 0xFD	; 253
    2d24:	e0 81       	ld	r30, Z
    2d26:	80 91 b7 02 	lds	r24, 0x02B7
    2d2a:	8e 30       	cpi	r24, 0x0E	; 14
    2d2c:	11 f0       	breq	.+4      	; 0x2d32 <menu_view+0x366>
    2d2e:	43 e0       	ldi	r20, 0x03	; 3
    2d30:	01 c0       	rjmp	.+2      	; 0x2d34 <menu_view+0x368>
    2d32:	41 e0       	ldi	r20, 0x01	; 1
    2d34:	8e 2f       	mov	r24, r30
    2d36:	60 e0       	ldi	r22, 0x00	; 0
    2d38:	b5 d3       	rcall	.+1898   	; 0x34a4 <LCD_PrintHex>
    2d3a:	18 c0       	rjmp	.+48     	; 0x2d6c <menu_view+0x3a0>
       break;
    case menu_service_watch:
        LCD_AllSegments(LCD_MODE_ON);
    2d3c:	83 e0       	ldi	r24, 0x03	; 3
    2d3e:	8c d2       	rcall	.+1304   	; 0x3258 <LCD_AllSegments>
        LCD_PrintHexW(watch(service_watch_n),LCD_MODE_ON);
    2d40:	80 91 74 02 	lds	r24, 0x0274
    2d44:	0e 94 0c 08 	call	0x1018	; 0x1018 <watch>
    2d48:	63 e0       	ldi	r22, 0x03	; 3
    2d4a:	c1 d3       	rcall	.+1922   	; 0x34ce <LCD_PrintHexW>
        LCD_SetHourBarSeg(service_watch_n, LCD_MODE_BLINK_1);
    2d4c:	80 91 74 02 	lds	r24, 0x0274
    2d50:	61 e0       	ldi	r22, 0x01	; 1
    2d52:	16 d3       	rcall	.+1580   	; 0x3380 <LCD_SetHourBarSeg>
    2d54:	0b c0       	rjmp	.+22     	; 0x2d6c <menu_view+0x3a0>
#if (! REMOTE_SETTING_ONLY)
    case menu_preset_temp0:
    case menu_preset_temp1:
    case menu_preset_temp2:
    case menu_preset_temp3:
        clr_show1(LCD_SEG_COL1);           // decimal point
    2d56:	8b e3       	ldi	r24, 0x3B	; 59
    2d58:	16 de       	rcall	.-980    	; 0x2986 <clr_show1>
        LCD_PrintTemp(menu_set_temp,LCD_MODE_BLINK_1);
    2d5a:	80 91 75 02 	lds	r24, 0x0275
    2d5e:	61 e0       	ldi	r22, 0x01	; 1
    2d60:	e4 d3       	rcall	.+1992   	; 0x352a <LCD_PrintTemp>
        show_selected_temperature_type(menu_state-menu_preset_temp0,LCD_MODE_ON);
    2d62:	80 91 b7 02 	lds	r24, 0x02B7
    2d66:	82 50       	subi	r24, 0x02	; 2
    2d68:	63 e0       	ldi	r22, 0x03	; 3
    2d6a:	16 de       	rcall	.-980    	; 0x2998 <show_selected_temperature_type>
#endif
    default:
        break;                   
    }                                          
}
    2d6c:	1f 91       	pop	r17
    2d6e:	08 95       	ret

00002d70 <menu_controller>:
 *******************************************************************************
 * \brief menu Controller
 * 
 * \returns true for controler restart  
 ******************************************************************************/
bool menu_controller(bool new_state) {
    2d70:	ef 92       	push	r14
    2d72:	ff 92       	push	r15
    2d74:	1f 93       	push	r17
    2d76:	cf 93       	push	r28
    2d78:	df 93       	push	r29
 * \returns true for controler restart
 ******************************************************************************/

static int8_t wheel_proccess(void) {
    int8_t ret=0;
    if (kb_events & KB_EVENT_WHEEL_PLUS) {
    2d7a:	40 91 18 02 	lds	r20, 0x0218
    2d7e:	50 91 19 02 	lds	r21, 0x0219
    2d82:	40 ff       	sbrs	r20, 0
    2d84:	02 c0       	rjmp	.+4      	; 0x2d8a <menu_controller+0x1a>
    2d86:	11 e0       	ldi	r17, 0x01	; 1
    2d88:	05 c0       	rjmp	.+10     	; 0x2d94 <menu_controller+0x24>
        ret= 1;
    } else if (kb_events & KB_EVENT_WHEEL_MINUS) {
    2d8a:	41 fd       	sbrc	r20, 1
    2d8c:	02 c0       	rjmp	.+4      	; 0x2d92 <menu_controller+0x22>
    2d8e:	10 e0       	ldi	r17, 0x00	; 0
    2d90:	01 c0       	rjmp	.+2      	; 0x2d94 <menu_controller+0x24>
    2d92:	1f ef       	ldi	r17, 0xFF	; 255
 * \returns true for controler restart  
 ******************************************************************************/
bool menu_controller(bool new_state) {
	int8_t wheel = wheel_proccess(); //signed number
	bool ret = false;
    switch (menu_state) {
    2d94:	90 91 b7 02 	lds	r25, 0x02B7
    2d98:	e9 2f       	mov	r30, r25
    2d9a:	f0 e0       	ldi	r31, 0x00	; 0
    2d9c:	e8 31       	cpi	r30, 0x18	; 24
    2d9e:	f1 05       	cpc	r31, r1
    2da0:	08 f0       	brcs	.+2      	; 0x2da4 <menu_controller+0x34>
    2da2:	a2 c1       	rjmp	.+836    	; 0x30e8 <menu_controller+0x378>
    2da4:	e2 57       	subi	r30, 0x72	; 114
    2da6:	ff 4f       	sbci	r31, 0xFF	; 255
    2da8:	e3 c5       	rjmp	.+3014   	; 0x3970 <__tablejump2__>
    case menu_startup:
        if (new_state) {
    2daa:	88 23       	and	r24, r24
    2dac:	19 f0       	breq	.+6      	; 0x2db4 <menu_controller+0x44>
            menu_auto_update_timeout=2;
    2dae:	82 e0       	ldi	r24, 0x02	; 2
    2db0:	80 93 19 01 	sts	0x0119, r24
        }
        if (menu_auto_update_timeout==0) {
    2db4:	80 91 19 01 	lds	r24, 0x0119
    2db8:	88 23       	and	r24, r24
    2dba:	09 f0       	breq	.+2      	; 0x2dbe <menu_controller+0x4e>
    2dbc:	01 c2       	rjmp	.+1026   	; 0x31c0 <menu_controller+0x450>
            menu_state = menu_version;
    2dbe:	81 e0       	ldi	r24, 0x01	; 1
    2dc0:	80 93 b7 02 	sts	0x02B7, r24
    2dc4:	00 c2       	rjmp	.+1024   	; 0x31c6 <menu_controller+0x456>
            ret=true;
        }
        break;
    case menu_version:
        if (new_state) {
    2dc6:	88 23       	and	r24, r24
    2dc8:	19 f0       	breq	.+6      	; 0x2dd0 <menu_controller+0x60>
            menu_auto_update_timeout=2;
    2dca:	82 e0       	ldi	r24, 0x02	; 2
    2dcc:	80 93 19 01 	sts	0x0119, r24
        }
        if (menu_auto_update_timeout==0) {
    2dd0:	80 91 19 01 	lds	r24, 0x0119
    2dd4:	88 23       	and	r24, r24
    2dd6:	09 f0       	breq	.+2      	; 0x2dda <menu_controller+0x6a>
    2dd8:	f3 c1       	rjmp	.+998    	; 0x31c0 <menu_controller+0x450>
            #if (DEBUG_SKIP_DATETIME_SETTING_AFTER_RESET) || (REMOTE_SETTING_ONLY)
                menu_state = menu_home;
            #else
                menu_state = menu_set_year;
    2dda:	80 e1       	ldi	r24, 0x10	; 16
    2ddc:	dd c1       	rjmp	.+954    	; 0x3198 <menu_controller+0x428>
            ret=true;
        }
        break;
#if (! REMOTE_SETTING_ONLY)
    case menu_set_year:
        if (wheel != 0) RTC_SetYear(RTC_GetYearYY()+wheel);
    2dde:	11 23       	and	r17, r17
    2de0:	21 f0       	breq	.+8      	; 0x2dea <menu_controller+0x7a>
    2de2:	80 91 10 01 	lds	r24, 0x0110
    2de6:	81 0f       	add	r24, r17
    2de8:	d6 d8       	rcall	.-3668   	; 0x1f96 <RTC_SetYear>
        if ( kb_events & KB_EVENT_PROG) {
    2dea:	80 91 18 02 	lds	r24, 0x0218
    2dee:	82 ff       	sbrs	r24, 2
    2df0:	e7 c1       	rjmp	.+974    	; 0x31c0 <menu_controller+0x450>
            menu_state = menu_set_month;
    2df2:	81 e1       	ldi	r24, 0x11	; 17
    2df4:	71 c1       	rjmp	.+738    	; 0x30d8 <menu_controller+0x368>
            CTL_update_temp_auto();
            ret=true;
        }
        break;
    case menu_set_month:
        if (wheel != 0) RTC_SetMonth(RTC_GetMonth()+wheel);
    2df6:	11 23       	and	r17, r17
    2df8:	21 f0       	breq	.+8      	; 0x2e02 <menu_controller+0x92>
    2dfa:	80 91 11 01 	lds	r24, 0x0111
    2dfe:	81 0f       	add	r24, r17
    2e00:	cd d8       	rcall	.-3686   	; 0x1f9c <RTC_SetMonth>
        if ( kb_events & KB_EVENT_PROG ) {
    2e02:	80 91 18 02 	lds	r24, 0x0218
    2e06:	82 ff       	sbrs	r24, 2
    2e08:	db c1       	rjmp	.+950    	; 0x31c0 <menu_controller+0x450>
            menu_state = menu_set_day;
    2e0a:	82 e1       	ldi	r24, 0x12	; 18
    2e0c:	65 c1       	rjmp	.+714    	; 0x30d8 <menu_controller+0x368>
            CTL_update_temp_auto();
            ret=true;
        }
        break;
    case menu_set_day:
        if (wheel != 0) RTC_SetDay(RTC_GetDay()+wheel);
    2e0e:	11 23       	and	r17, r17
    2e10:	21 f0       	breq	.+8      	; 0x2e1a <menu_controller+0xaa>
    2e12:	80 91 12 01 	lds	r24, 0x0112
    2e16:	81 0f       	add	r24, r17
    2e18:	c9 d8       	rcall	.-3694   	; 0x1fac <RTC_SetDay>
        if ( kb_events & KB_EVENT_PROG ) {
    2e1a:	80 91 18 02 	lds	r24, 0x0218
    2e1e:	82 ff       	sbrs	r24, 2
    2e20:	cf c1       	rjmp	.+926    	; 0x31c0 <menu_controller+0x450>
            menu_state = menu_set_hour;
    2e22:	83 e1       	ldi	r24, 0x13	; 19
    2e24:	59 c1       	rjmp	.+690    	; 0x30d8 <menu_controller+0x368>
            CTL_update_temp_auto();
            ret=true;
        }
        break;
    case menu_set_hour:
        if (wheel != 0) RTC_SetHour(RTC_GetHour()+wheel);
    2e26:	11 23       	and	r17, r17
    2e28:	29 f0       	breq	.+10     	; 0x2e34 <menu_controller+0xc4>
    2e2a:	80 91 13 01 	lds	r24, 0x0113
    2e2e:	81 0f       	add	r24, r17
    2e30:	0e 94 91 0d 	call	0x1b22	; 0x1b22 <RTC_SetHour>
        if ( kb_events & KB_EVENT_PROG ) {
    2e34:	80 91 18 02 	lds	r24, 0x0218
    2e38:	82 ff       	sbrs	r24, 2
    2e3a:	c2 c1       	rjmp	.+900    	; 0x31c0 <menu_controller+0x450>
            menu_state = menu_set_minute;
    2e3c:	84 e1       	ldi	r24, 0x14	; 20
    2e3e:	4c c1       	rjmp	.+664    	; 0x30d8 <menu_controller+0x368>
            CTL_update_temp_auto();
            ret=true;
        }
        break;
    case menu_set_minute:
        if (wheel != 0) {
    2e40:	11 23       	and	r17, r17
    2e42:	41 f0       	breq	.+16     	; 0x2e54 <menu_controller+0xe4>
            RTC_SetMinute(RTC_GetMinute()+wheel);
    2e44:	80 91 14 01 	lds	r24, 0x0114
    2e48:	81 0f       	add	r24, r17
    2e4a:	0e 94 98 0d 	call	0x1b30	; 0x1b30 <RTC_SetMinute>
            RTC_SetSecond(0);
    2e4e:	80 e0       	ldi	r24, 0x00	; 0
    2e50:	0e 94 9f 0d 	call	0x1b3e	; 0x1b3e <RTC_SetSecond>
        }
        if ( kb_events & KB_EVENT_PROG ) {
    2e54:	80 91 18 02 	lds	r24, 0x0218
    2e58:	82 ff       	sbrs	r24, 2
    2e5a:	b2 c1       	rjmp	.+868    	; 0x31c0 <menu_controller+0x450>
            menu_state = menu_home;
    2e5c:	87 e0       	ldi	r24, 0x07	; 7
    2e5e:	3c c1       	rjmp	.+632    	; 0x30d8 <menu_controller+0x368>
    case menu_home3:        // alternate version, valve pos
    case menu_home4:        // alternate version, time    
#if MENU_SHOW_BATTERY
    case menu_home5:        // alternate version, battery    
#endif
        if ( kb_events & KB_EVENT_C ) {
    2e60:	43 ff       	sbrs	r20, 3
    2e62:	08 c0       	rjmp	.+16     	; 0x2e74 <menu_controller+0x104>
            menu_state++;       // go to next alternate home screen
    2e64:	89 2f       	mov	r24, r25
    2e66:	8f 5f       	subi	r24, 0xFF	; 255
    2e68:	80 93 b7 02 	sts	0x02B7, r24
#if MENU_SHOW_BATTERY
            if (menu_state > menu_home5) menu_state=menu_home;
    2e6c:	8c 30       	cpi	r24, 0x0C	; 12
    2e6e:	09 f0       	breq	.+2      	; 0x2e72 <menu_controller+0x102>
    2e70:	a9 c1       	rjmp	.+850    	; 0x31c4 <menu_controller+0x454>
    2e72:	8d c1       	rjmp	.+794    	; 0x318e <menu_controller+0x41e>
#else
            if (menu_state > menu_home4) menu_state=menu_home;
#endif
            ret=true; 
        } else {
            if (menu_locked) {
    2e74:	80 91 73 02 	lds	r24, 0x0273
    2e78:	88 23       	and	r24, r24
    2e7a:	51 f0       	breq	.+20     	; 0x2e90 <menu_controller+0x120>
                if ( kb_events & (
    2e7c:	47 7f       	andi	r20, 0xF7	; 247
    2e7e:	57 70       	andi	r21, 0x07	; 7
    2e80:	45 2b       	or	r20, r21
    2e82:	09 f4       	brne	.+2      	; 0x2e86 <menu_controller+0x116>
    2e84:	9d c1       	rjmp	.+826    	; 0x31c0 <menu_controller+0x450>
                        KB_EVENT_WHEEL_PLUS  | KB_EVENT_WHEEL_MINUS | KB_EVENT_PROG
                        | KB_EVENT_AUTO | KB_EVENT_PROG_REWOKE | KB_EVENT_C_REWOKE | KB_EVENT_AUTO_REWOKE
                        | KB_EVENT_PROG_LONG | KB_EVENT_C_LONG | KB_EVENT_AUTO_LONG )) {
                    menu_auto_update_timeout=LONG_PRESS_THLD+1;
    2e86:	85 e0       	ldi	r24, 0x05	; 5
    2e88:	80 93 19 01 	sts	0x0119, r24
                    menu_state=menu_lock;
    2e8c:	8c e0       	ldi	r24, 0x0C	; 12
    2e8e:	84 c1       	rjmp	.+776    	; 0x3198 <menu_controller+0x428>
                    ret=true;
                    }
            } else { // not locked
				if ((menu_state == menu_home) || (menu_state == menu_home_no_alter)) {
    2e90:	96 50       	subi	r25, 0x06	; 6
    2e92:	92 30       	cpi	r25, 0x02	; 2
    2e94:	08 f0       	brcs	.+2      	; 0x2e98 <menu_controller+0x128>
    2e96:	40 c0       	rjmp	.+128    	; 0x2f18 <menu_controller+0x1a8>
					if (wheel != 0) {   //Handle wheel changes 
    2e98:	11 23       	and	r17, r17
    2e9a:	11 f4       	brne	.+4      	; 0x2ea0 <menu_controller+0x130>
    2e9c:	80 e0       	ldi	r24, 0x00	; 0
    2e9e:	28 c0       	rjmp	.+80     	; 0x2ef0 <menu_controller+0x180>
						if (CTL_mode_auto >= 2){
    2ea0:	80 91 0b 01 	lds	r24, 0x010B
    2ea4:	82 30       	cpi	r24, 0x02	; 2
    2ea6:	78 f0       	brcs	.+30     	; 0x2ec6 <menu_controller+0x156>
							wheel_tick_counter = (wheel_tick_counter==-128)?-127:wheel_tick_counter;
    2ea8:	80 91 71 02 	lds	r24, 0x0271
    2eac:	80 38       	cpi	r24, 0x80	; 128
    2eae:	11 f4       	brne	.+4      	; 0x2eb4 <menu_controller+0x144>
    2eb0:	81 e8       	ldi	r24, 0x81	; 129
    2eb2:	03 c0       	rjmp	.+6      	; 0x2eba <menu_controller+0x14a>
							wheel_tick_counter = (wheel_tick_counter==127)?126:wheel_tick_counter;
    2eb4:	8f 37       	cpi	r24, 0x7F	; 127
    2eb6:	09 f4       	brne	.+2      	; 0x2eba <menu_controller+0x14a>
    2eb8:	8e e7       	ldi	r24, 0x7E	; 126
							wheel_tick_counter += wheel;
    2eba:	81 0f       	add	r24, r17
    2ebc:	80 93 71 02 	sts	0x0271, r24
							wheel_tick_time = 0;
    2ec0:	10 92 72 02 	sts	0x0272, r1
    2ec4:	11 c0       	rjmp	.+34     	; 0x2ee8 <menu_controller+0x178>
								
						}
						else if (CTL_mode_auto==manual_target){
    2ec6:	88 23       	and	r24, r24
    2ec8:	21 f4       	brne	.+8      	; 0x2ed2 <menu_controller+0x162>
							CTL_temp_change_inc(wheel);
    2eca:	81 2f       	mov	r24, r17
    2ecc:	0e 94 95 04 	call	0x92a	; 0x92a <CTL_temp_change_inc>
    2ed0:	0b c0       	rjmp	.+22     	; 0x2ee8 <menu_controller+0x178>
						}
						else if (CTL_mode_auto==manual_timers){
							CTL_change_mode(manual_target);
    2ed2:	80 e0       	ldi	r24, 0x00	; 0
    2ed4:	0e 94 c1 04 	call	0x982	; 0x982 <CTL_change_mode>
							CTL_temp_change_inc(wheel);
    2ed8:	81 2f       	mov	r24, r17
    2eda:	0e 94 95 04 	call	0x92a	; 0x92a <CTL_temp_change_inc>
							CTL_mode_changed=1;
    2ede:	81 e0       	ldi	r24, 0x01	; 1
    2ee0:	80 93 34 01 	sts	0x0134, r24
							CTL_mode_changed_timer=0;
    2ee4:	10 92 35 01 	sts	0x0135, r1
						}
						menu_state = menu_home_no_alter;
    2ee8:	86 e0       	ldi	r24, 0x06	; 6
    2eea:	80 93 b7 02 	sts	0x02B7, r24
    2eee:	81 e0       	ldi	r24, 0x01	; 1
						ret=true; 
					} 			 
					if ( kb_events & KB_EVENT_AUTO ) {
    2ef0:	90 91 18 02 	lds	r25, 0x0218
    2ef4:	94 ff       	sbrs	r25, 4
    2ef6:	02 c0       	rjmp	.+4      	; 0x2efc <menu_controller+0x18c>
						CTL_change_mode(CTL_CHANGE_AUTO); // change mode
    2ef8:	8f ef       	ldi	r24, 0xFF	; 255
    2efa:	03 c0       	rjmp	.+6      	; 0x2f02 <menu_controller+0x192>
						menu_state=menu_home_no_alter;
						ret=true; 
					} 
					else if ( kb_events & KB_EVENT_AUTO_REWOKE ) {
    2efc:	97 ff       	sbrs	r25, 7
    2efe:	05 c0       	rjmp	.+10     	; 0x2f0a <menu_controller+0x19a>
						CTL_change_mode(CTL_CHANGE_MODE_REWOKE); // change mode
    2f00:	8d ef       	ldi	r24, 0xFD	; 253
    2f02:	0e 94 c1 04 	call	0x982	; 0x982 <CTL_change_mode>
						menu_state=menu_home_no_alter;
    2f06:	86 e0       	ldi	r24, 0x06	; 6
    2f08:	47 c1       	rjmp	.+654    	; 0x3198 <menu_controller+0x428>
						ret=true; 
					
					}
					else if ( kb_events & KB_EVENT_PROG ) {
    2f0a:	92 ff       	sbrs	r25, 2
    2f0c:	02 c0       	rjmp	.+4      	; 0x2f12 <menu_controller+0x1a2>
						CTL_change_mode(CTL_CHANGE_MINOR_MODE); // change mode
    2f0e:	8e ef       	ldi	r24, 0xFE	; 254
    2f10:	f8 cf       	rjmp	.-16     	; 0x2f02 <menu_controller+0x192>
						menu_state=menu_home_no_alter;
						ret=true; 
					}
					else if ( kb_events & KB_EVENT_PROG_REWOKE ) {
    2f12:	95 ff       	sbrs	r25, 5
    2f14:	58 c1       	rjmp	.+688    	; 0x31c6 <menu_controller+0x456>
    2f16:	f4 cf       	rjmp	.-24     	; 0x2f00 <menu_controller+0x190>
						menu_state=menu_home_no_alter;
						ret=true; 
					}
				} 
				else {
					if ( kb_events & (
    2f18:	47 7f       	andi	r20, 0xF7	; 247
    2f1a:	57 70       	andi	r21, 0x07	; 7
    2f1c:	45 2b       	or	r20, r21
    2f1e:	09 f4       	brne	.+2      	; 0x2f22 <menu_controller+0x1b2>
    2f20:	4f c1       	rjmp	.+670    	; 0x31c0 <menu_controller+0x450>
    2f22:	35 c1       	rjmp	.+618    	; 0x318e <menu_controller+0x41e>
            }
        } 
        break;
#if (! REMOTE_SETTING_ONLY)
    case menu_set_timmer_dow_start:
        if (new_state) menu_set_dow=((config.timer_mode==1)?RTC_GetDayOfWeek():0);
    2f24:	88 23       	and	r24, r24
    2f26:	51 f0       	breq	.+20     	; 0x2f3c <menu_controller+0x1cc>
    2f28:	80 91 ac 02 	lds	r24, 0x02AC
    2f2c:	81 30       	cpi	r24, 0x01	; 1
    2f2e:	11 f0       	breq	.+4      	; 0x2f34 <menu_controller+0x1c4>
    2f30:	80 e0       	ldi	r24, 0x00	; 0
    2f32:	02 c0       	rjmp	.+4      	; 0x2f38 <menu_controller+0x1c8>
    2f34:	80 91 16 01 	lds	r24, 0x0116
    2f38:	80 93 75 02 	sts	0x0275, r24
        menu_state = menu_set_timmer_dow;
    2f3c:	86 e1       	ldi	r24, 0x16	; 22
    2f3e:	80 93 b7 02 	sts	0x02B7, r24
        // do not use break here
    case menu_set_timmer_dow:
		if (wheel != 0) menu_set_dow=(menu_set_dow+wheel+8)%8;
    2f42:	11 23       	and	r17, r17
    2f44:	61 f0       	breq	.+24     	; 0x2f5e <menu_controller+0x1ee>
    2f46:	20 91 75 02 	lds	r18, 0x0275
    2f4a:	81 2f       	mov	r24, r17
    2f4c:	99 27       	eor	r25, r25
    2f4e:	87 fd       	sbrc	r24, 7
    2f50:	90 95       	com	r25
    2f52:	82 0f       	add	r24, r18
    2f54:	91 1d       	adc	r25, r1
    2f56:	87 70       	andi	r24, 0x07	; 7
    2f58:	90 70       	andi	r25, 0x00	; 0
    2f5a:	80 93 75 02 	sts	0x0275, r24
        if ( kb_events & KB_EVENT_PROG ) {
    2f5e:	42 ff       	sbrs	r20, 2
    2f60:	c0 c0       	rjmp	.+384    	; 0x30e2 <menu_controller+0x372>
            menu_state=menu_set_timmer;
    2f62:	87 e1       	ldi	r24, 0x17	; 23
    2f64:	80 93 b7 02 	sts	0x02B7, r24
            menu_set_slot=0;
    2f68:	10 92 79 02 	sts	0x0279, r1
            config.timer_mode = (menu_set_dow>0);
    2f6c:	10 92 ac 02 	sts	0x02AC, r1
    2f70:	80 91 75 02 	lds	r24, 0x0275
    2f74:	88 23       	and	r24, r24
    2f76:	19 f0       	breq	.+6      	; 0x2f7e <menu_controller+0x20e>
    2f78:	81 e0       	ldi	r24, 0x01	; 1
    2f7a:	80 93 ac 02 	sts	0x02AC, r24
            eeprom_config_save((uint16_t)(&config.timer_mode)-(uint16_t)(&config)); // save value to eeprom
    2f7e:	82 e2       	ldi	r24, 0x22	; 34
    2f80:	6a dc       	rcall	.-1836   	; 0x2856 <eeprom_config_save>
    2f82:	68 c0       	rjmp	.+208    	; 0x3054 <menu_controller+0x2e4>
            menu_state=menu_home;
            ret=true; 
        }
        break;        
    case menu_set_timmer:
        if (new_state) {
    2f84:	88 23       	and	r24, r24
    2f86:	a1 f0       	breq	.+40     	; 0x2fb0 <menu_controller+0x240>
            menu_set_time= RTC_DowTimerGet(menu_set_dow, menu_set_slot, &menu_set_mode);
    2f88:	80 91 75 02 	lds	r24, 0x0275
    2f8c:	60 91 79 02 	lds	r22, 0x0279
    2f90:	48 e7       	ldi	r20, 0x78	; 120
    2f92:	52 e0       	ldi	r21, 0x02	; 2
    2f94:	41 d8       	rcall	.-3966   	; 0x2018 <RTC_DowTimerGet>
    2f96:	90 93 77 02 	sts	0x0277, r25
    2f9a:	80 93 76 02 	sts	0x0276, r24
			if (menu_set_time>24*60) menu_set_time=24*60;
    2f9e:	81 5a       	subi	r24, 0xA1	; 161
    2fa0:	95 40       	sbci	r25, 0x05	; 5
    2fa2:	30 f0       	brcs	.+12     	; 0x2fb0 <menu_controller+0x240>
    2fa4:	80 ea       	ldi	r24, 0xA0	; 160
    2fa6:	95 e0       	ldi	r25, 0x05	; 5
    2fa8:	90 93 77 02 	sts	0x0277, r25
    2fac:	80 93 76 02 	sts	0x0276, r24
        }
        if (wheel != 0) {
    2fb0:	11 23       	and	r17, r17
    2fb2:	09 f1       	breq	.+66     	; 0x2ff6 <menu_controller+0x286>
            menu_set_time=((menu_set_time/10+(24*6+1)+wheel)%(24*6+1))*10;
    2fb4:	80 91 76 02 	lds	r24, 0x0276
    2fb8:	90 91 77 02 	lds	r25, 0x0277
    2fbc:	6a e0       	ldi	r22, 0x0A	; 10
    2fbe:	70 e0       	ldi	r23, 0x00	; 0
    2fc0:	3c d4       	rcall	.+2168   	; 0x383a <__udivmodhi4>
    2fc2:	cb 01       	movw	r24, r22
    2fc4:	8f 56       	subi	r24, 0x6F	; 111
    2fc6:	9f 4f       	sbci	r25, 0xFF	; 255
    2fc8:	21 2f       	mov	r18, r17
    2fca:	33 27       	eor	r19, r19
    2fcc:	27 fd       	sbrc	r18, 7
    2fce:	30 95       	com	r19
    2fd0:	82 0f       	add	r24, r18
    2fd2:	93 1f       	adc	r25, r19
    2fd4:	61 e9       	ldi	r22, 0x91	; 145
    2fd6:	70 e0       	ldi	r23, 0x00	; 0
    2fd8:	30 d4       	rcall	.+2144   	; 0x383a <__udivmodhi4>
    2fda:	9c 01       	movw	r18, r24
    2fdc:	53 e0       	ldi	r21, 0x03	; 3
    2fde:	88 0f       	add	r24, r24
    2fe0:	99 1f       	adc	r25, r25
    2fe2:	5a 95       	dec	r21
    2fe4:	e1 f7       	brne	.-8      	; 0x2fde <menu_controller+0x26e>
    2fe6:	22 0f       	add	r18, r18
    2fe8:	33 1f       	adc	r19, r19
    2fea:	82 0f       	add	r24, r18
    2fec:	93 1f       	adc	r25, r19
    2fee:	90 93 77 02 	sts	0x0277, r25
    2ff2:	80 93 76 02 	sts	0x0276, r24
        }
        if ( kb_events & KB_EVENT_C ) {
    2ff6:	80 91 18 02 	lds	r24, 0x0218
    2ffa:	83 ff       	sbrs	r24, 3
    2ffc:	09 c0       	rjmp	.+18     	; 0x3010 <menu_controller+0x2a0>
            menu_set_mode=(menu_set_mode+5)%4;
    2ffe:	80 91 78 02 	lds	r24, 0x0278
    3002:	90 e0       	ldi	r25, 0x00	; 0
    3004:	05 96       	adiw	r24, 0x05	; 5
    3006:	83 70       	andi	r24, 0x03	; 3
    3008:	90 70       	andi	r25, 0x00	; 0
    300a:	80 93 78 02 	sts	0x0278, r24
    300e:	d8 c0       	rjmp	.+432    	; 0x31c0 <menu_controller+0x450>
        } else if ( kb_events & KB_EVENT_PROG ) {
    3010:	82 ff       	sbrs	r24, 2
    3012:	33 c0       	rjmp	.+102    	; 0x307a <menu_controller+0x30a>
            RTC_DowTimerSet(menu_set_dow, menu_set_slot, menu_set_time, menu_set_mode);
    3014:	40 91 76 02 	lds	r20, 0x0276
    3018:	50 91 77 02 	lds	r21, 0x0277
    301c:	80 91 75 02 	lds	r24, 0x0275
    3020:	60 91 79 02 	lds	r22, 0x0279
    3024:	20 91 78 02 	lds	r18, 0x0278
    3028:	0a d8       	rcall	.-4076   	; 0x203e <RTC_DowTimerSet>
            if (++menu_set_slot>=RTC_TIMERS_PER_DOW) {
    302a:	80 91 79 02 	lds	r24, 0x0279
    302e:	8f 5f       	subi	r24, 0xFF	; 255
    3030:	80 93 79 02 	sts	0x0279, r24
    3034:	88 30       	cpi	r24, 0x08	; 8
    3036:	60 f0       	brcs	.+24     	; 0x3050 <menu_controller+0x2e0>
                if (menu_set_dow!=0) menu_set_dow=menu_set_dow%7+1; 
    3038:	80 91 75 02 	lds	r24, 0x0275
    303c:	88 23       	and	r24, r24
    303e:	29 f0       	breq	.+10     	; 0x304a <menu_controller+0x2da>
    3040:	67 e0       	ldi	r22, 0x07	; 7
    3042:	e2 d3       	rcall	.+1988   	; 0x3808 <__udivmodqi4>
    3044:	9f 5f       	subi	r25, 0xFF	; 255
    3046:	90 93 75 02 	sts	0x0275, r25
                menu_state=menu_set_timmer_dow;
    304a:	86 e1       	ldi	r24, 0x16	; 22
    304c:	80 93 b7 02 	sts	0x02B7, r24
            }
            CTL_update_temp_auto();
    3050:	10 92 31 01 	sts	0x0131, r1
        	menu_update_hourbar((config.timer_mode==1)?RTC_GetDayOfWeek():0);
    3054:	80 91 ac 02 	lds	r24, 0x02AC
    3058:	81 30       	cpi	r24, 0x01	; 1
    305a:	11 f0       	breq	.+4      	; 0x3060 <menu_controller+0x2f0>
    305c:	80 e0       	ldi	r24, 0x00	; 0
    305e:	02 c0       	rjmp	.+4      	; 0x3064 <menu_controller+0x2f4>
    3060:	80 91 16 01 	lds	r24, 0x0116
    3064:	0e 94 9e 0e 	call	0x1d3c	; 0x1d3c <RTC_DowTimerGetHourBar>
    3068:	60 93 b3 02 	sts	0x02B3, r22
    306c:	70 93 b4 02 	sts	0x02B4, r23
    3070:	80 93 b5 02 	sts	0x02B5, r24
    3074:	90 93 b6 02 	sts	0x02B6, r25
    3078:	a5 c0       	rjmp	.+330    	; 0x31c4 <menu_controller+0x454>
            ret=true; 
        } else if ( kb_events & KB_EVENT_AUTO ) { // exit without save
    307a:	84 ff       	sbrs	r24, 4
    307c:	a1 c0       	rjmp	.+322    	; 0x31c0 <menu_controller+0x450>
    307e:	87 c0       	rjmp	.+270    	; 0x318e <menu_controller+0x41e>
#if (! REMOTE_SETTING_ONLY)
    case menu_preset_temp0:
    case menu_preset_temp1:
    case menu_preset_temp2:
    case menu_preset_temp3:
        if (new_state) menu_set_temp=temperature_table[menu_state-menu_preset_temp0];
    3080:	88 23       	and	r24, r24
    3082:	39 f0       	breq	.+14     	; 0x3092 <menu_controller+0x322>
    3084:	e9 2f       	mov	r30, r25
    3086:	f0 e0       	ldi	r31, 0x00	; 0
    3088:	e7 57       	subi	r30, 0x77	; 119
    308a:	fd 4f       	sbci	r31, 0xFD	; 253
    308c:	80 81       	ld	r24, Z
    308e:	80 93 75 02 	sts	0x0275, r24
        if (wheel != 0) {
    3092:	11 23       	and	r17, r17
    3094:	89 f0       	breq	.+34     	; 0x30b8 <menu_controller+0x348>
            menu_set_temp+=wheel;
    3096:	80 91 75 02 	lds	r24, 0x0275
    309a:	81 0f       	add	r24, r17
    309c:	80 93 75 02 	sts	0x0275, r24
            if (menu_set_temp > TEMP_MAX+1) menu_set_temp = TEMP_MAX+1;
    30a0:	8e 33       	cpi	r24, 0x3E	; 62
    30a2:	18 f0       	brcs	.+6      	; 0x30aa <menu_controller+0x33a>
    30a4:	8d e3       	ldi	r24, 0x3D	; 61
    30a6:	80 93 75 02 	sts	0x0275, r24
            if (menu_set_temp < TEMP_MIN-1) menu_set_temp = TEMP_MIN-1;
    30aa:	80 91 75 02 	lds	r24, 0x0275
    30ae:	89 30       	cpi	r24, 0x09	; 9
    30b0:	18 f4       	brcc	.+6      	; 0x30b8 <menu_controller+0x348>
    30b2:	89 e0       	ldi	r24, 0x09	; 9
    30b4:	80 93 75 02 	sts	0x0275, r24
        }
        if ( kb_events & KB_EVENT_PROG ) {
    30b8:	42 ff       	sbrs	r20, 2
    30ba:	13 c0       	rjmp	.+38     	; 0x30e2 <menu_controller+0x372>
            temperature_table[menu_state-menu_preset_temp0]=menu_set_temp;
    30bc:	e9 2f       	mov	r30, r25
    30be:	f0 e0       	ldi	r31, 0x00	; 0
    30c0:	e7 57       	subi	r30, 0x77	; 119
    30c2:	fd 4f       	sbci	r31, 0xFD	; 253
    30c4:	80 91 75 02 	lds	r24, 0x0275
    30c8:	80 83       	st	Z, r24
            eeprom_config_save(menu_state+((temperature_table-config_raw)-menu_preset_temp0));
    30ca:	80 91 b7 02 	lds	r24, 0x02B7
    30ce:	81 50       	subi	r24, 0x01	; 1
    30d0:	c2 db       	rcall	.-2172   	; 0x2856 <eeprom_config_save>
            menu_state++; // menu_preset_temp3+1 == menu_home
    30d2:	80 91 b7 02 	lds	r24, 0x02B7
    30d6:	8f 5f       	subi	r24, 0xFF	; 255
    30d8:	80 93 b7 02 	sts	0x02B7, r24
            CTL_update_temp_auto();
    30dc:	10 92 31 01 	sts	0x0131, r1
    30e0:	71 c0       	rjmp	.+226    	; 0x31c4 <menu_controller+0x454>
            ret=true; 
        } else if ( kb_events & KB_EVENT_AUTO ) { // exit without save
    30e2:	44 ff       	sbrs	r20, 4
    30e4:	6d c0       	rjmp	.+218    	; 0x31c0 <menu_controller+0x450>
    30e6:	53 c0       	rjmp	.+166    	; 0x318e <menu_controller+0x41e>
        }
		break;
#endif
    default:
    case menu_lock:        // "bloc" message
        if (menu_auto_update_timeout==0) { menu_state=menu_home; ret=true; } 
    30e8:	80 91 19 01 	lds	r24, 0x0119
    30ec:	88 23       	and	r24, r24
    30ee:	09 f0       	breq	.+2      	; 0x30f2 <menu_controller+0x382>
    30f0:	67 c0       	rjmp	.+206    	; 0x31c0 <menu_controller+0x450>
    30f2:	4d c0       	rjmp	.+154    	; 0x318e <menu_controller+0x41e>
        break;        
    case menu_service1:     // service menu        
    case menu_service2:        
        if (kb_events & KB_EVENT_AUTO) { 
    30f4:	44 fd       	sbrc	r20, 4
    30f6:	4b c0       	rjmp	.+150    	; 0x318e <menu_controller+0x41e>
            menu_state=menu_home; 
            ret=true;
        } else if (kb_events & KB_EVENT_C) { 
    30f8:	43 ff       	sbrs	r20, 3
    30fa:	02 c0       	rjmp	.+4      	; 0x3100 <menu_controller+0x390>
            menu_state=menu_service_watch; 
    30fc:	8f e0       	ldi	r24, 0x0F	; 15
    30fe:	4c c0       	rjmp	.+152    	; 0x3198 <menu_controller+0x428>
            ret=true;
        } else if (kb_events & KB_EVENT_PROG) {
    3100:	42 ff       	sbrs	r20, 2
    3102:	0b c0       	rjmp	.+22     	; 0x311a <menu_controller+0x3aa>
            if (menu_state == menu_service2) {
    3104:	9e 30       	cpi	r25, 0x0E	; 14
    3106:	29 f4       	brne	.+10     	; 0x3112 <menu_controller+0x3a2>
                eeprom_config_save(service_idx); // save current value
    3108:	80 91 1a 01 	lds	r24, 0x011A
    310c:	a4 db       	rcall	.-2232   	; 0x2856 <eeprom_config_save>
                menu_state = menu_service1;
    310e:	8d e0       	ldi	r24, 0x0D	; 13
    3110:	01 c0       	rjmp	.+2      	; 0x3114 <menu_controller+0x3a4>
            } else {
                menu_state = menu_service2;
    3112:	8e e0       	ldi	r24, 0x0E	; 14
    3114:	80 93 b7 02 	sts	0x02B7, r24
    3118:	53 c0       	rjmp	.+166    	; 0x31c0 <menu_controller+0x450>
    311a:	c1 2f       	mov	r28, r17
    311c:	dd 27       	eor	r29, r29
    311e:	c7 fd       	sbrc	r28, 7
    3120:	d0 95       	com	r29
            }
        } else {
            if (menu_state == menu_service1) {
    3122:	9d 30       	cpi	r25, 0x0D	; 13
    3124:	61 f4       	brne	.+24     	; 0x313e <menu_controller+0x3ce>
                // change index
                service_idx = (service_idx+wheel+CONFIG_RAW_SIZE)%CONFIG_RAW_SIZE;
    3126:	80 91 1a 01 	lds	r24, 0x011A
    312a:	c8 0f       	add	r28, r24
    312c:	d1 1d       	adc	r29, r1
    312e:	ce 01       	movw	r24, r28
    3130:	89 96       	adiw	r24, 0x29	; 41
    3132:	69 e2       	ldi	r22, 0x29	; 41
    3134:	70 e0       	ldi	r23, 0x00	; 0
    3136:	81 d3       	rcall	.+1794   	; 0x383a <__udivmodhi4>
    3138:	80 93 1a 01 	sts	0x011A, r24
    313c:	41 c0       	rjmp	.+130    	; 0x31c0 <menu_controller+0x450>
            } else {
                // change value in RAM, to save press PROG
                int16_t min = (int16_t)config_min(service_idx);
    313e:	80 91 1a 01 	lds	r24, 0x011A
    3142:	62 e0       	ldi	r22, 0x02	; 2
    3144:	64 db       	rcall	.-2360   	; 0x280e <config_read>
    3146:	18 2f       	mov	r17, r24
    3148:	e8 2e       	mov	r14, r24
    314a:	ff 24       	eor	r15, r15
                int16_t max_min_1 = (int16_t)(config_max(service_idx))-min+1;
    314c:	80 91 1a 01 	lds	r24, 0x011A
    3150:	63 e0       	ldi	r22, 0x03	; 3
    3152:	5d db       	rcall	.-2374   	; 0x280e <config_read>
    3154:	68 2f       	mov	r22, r24
    3156:	70 e0       	ldi	r23, 0x00	; 0
    3158:	6f 5f       	subi	r22, 0xFF	; 255
    315a:	7f 4f       	sbci	r23, 0xFF	; 255
    315c:	6e 19       	sub	r22, r14
    315e:	7f 09       	sbc	r23, r15
                config_raw[service_idx] = (uint8_t) (
    3160:	20 91 1a 01 	lds	r18, 0x011A
    3164:	e2 2f       	mov	r30, r18
    3166:	f0 e0       	ldi	r31, 0x00	; 0
    3168:	e6 57       	subi	r30, 0x76	; 118
    316a:	fd 4f       	sbci	r31, 0xFD	; 253
    316c:	80 81       	ld	r24, Z
    316e:	c8 0f       	add	r28, r24
    3170:	d1 1d       	adc	r29, r1
    3172:	ce 19       	sub	r28, r14
    3174:	df 09       	sbc	r29, r15
    3176:	ce 01       	movw	r24, r28
    3178:	86 0f       	add	r24, r22
    317a:	97 1f       	adc	r25, r23
    317c:	72 d3       	rcall	.+1764   	; 0x3862 <__divmodhi4>
    317e:	18 0f       	add	r17, r24
    3180:	10 83       	st	Z, r17
                        ((int16_t)(config_raw[service_idx])+(int16_t)wheel-min+max_min_1)%max_min_1+min);
                if (service_idx==0) LCD_Init();
    3182:	22 23       	and	r18, r18
    3184:	e9 f4       	brne	.+58     	; 0x31c0 <menu_controller+0x450>
    3186:	82 d0       	rcall	.+260    	; 0x328c <LCD_Init>
    3188:	1b c0       	rjmp	.+54     	; 0x31c0 <menu_controller+0x450>
            }
        }
        break;        
	case menu_service_watch:
        if (kb_events & KB_EVENT_AUTO) { 
    318a:	44 ff       	sbrs	r20, 4
    318c:	02 c0       	rjmp	.+4      	; 0x3192 <menu_controller+0x422>
            menu_state=menu_home; 
    318e:	87 e0       	ldi	r24, 0x07	; 7
    3190:	03 c0       	rjmp	.+6      	; 0x3198 <menu_controller+0x428>
            ret=true;
        } else if (kb_events & KB_EVENT_C) { 
    3192:	43 ff       	sbrs	r20, 3
    3194:	04 c0       	rjmp	.+8      	; 0x319e <menu_controller+0x42e>
            menu_state=menu_service1; 
    3196:	8d e0       	ldi	r24, 0x0D	; 13
    3198:	80 93 b7 02 	sts	0x02B7, r24
    319c:	13 c0       	rjmp	.+38     	; 0x31c4 <menu_controller+0x454>
            ret=true;
        } else {
            service_watch_n=(service_watch_n+wheel+WATCH_N)%WATCH_N;
    319e:	80 91 74 02 	lds	r24, 0x0274
    31a2:	90 e0       	ldi	r25, 0x00	; 0
    31a4:	0b 96       	adiw	r24, 0x0b	; 11
    31a6:	21 2f       	mov	r18, r17
    31a8:	33 27       	eor	r19, r19
    31aa:	27 fd       	sbrc	r18, 7
    31ac:	30 95       	com	r19
    31ae:	82 0f       	add	r24, r18
    31b0:	93 1f       	adc	r25, r19
    31b2:	6b e0       	ldi	r22, 0x0B	; 11
    31b4:	70 e0       	ldi	r23, 0x00	; 0
    31b6:	55 d3       	rcall	.+1706   	; 0x3862 <__divmodhi4>
    31b8:	80 93 74 02 	sts	0x0274, r24
            if (wheel != 0) ret=true;
    31bc:	11 23       	and	r17, r17
    31be:	11 f4       	brne	.+4      	; 0x31c4 <menu_controller+0x454>
    31c0:	80 e0       	ldi	r24, 0x00	; 0
    31c2:	01 c0       	rjmp	.+2      	; 0x31c6 <menu_controller+0x456>
    31c4:	81 e0       	ldi	r24, 0x01	; 1
 * \returns true for controler restart
 ******************************************************************************/

static bool events_common(void) {
    bool ret=false;
    if (kb_events & KB_EVENT_LOCK_LONG) {
    31c6:	20 91 18 02 	lds	r18, 0x0218
    31ca:	30 91 19 02 	lds	r19, 0x0219
    31ce:	90 91 73 02 	lds	r25, 0x0273
    31d2:	33 ff       	sbrs	r19, 3
    31d4:	0d c0       	rjmp	.+26     	; 0x31f0 <menu_controller+0x480>
        menu_auto_update_timeout=LONG_PRESS_THLD+1;
    31d6:	85 e0       	ldi	r24, 0x05	; 5
    31d8:	80 93 19 01 	sts	0x0119, r24
        menu_locked = ! menu_locked;
    31dc:	80 e0       	ldi	r24, 0x00	; 0
    31de:	99 23       	and	r25, r25
    31e0:	09 f4       	brne	.+2      	; 0x31e4 <menu_controller+0x474>
    31e2:	81 e0       	ldi	r24, 0x01	; 1
    31e4:	80 93 73 02 	sts	0x0273, r24
        menu_state = (menu_locked)?menu_lock:menu_home;
    31e8:	88 23       	and	r24, r24
    31ea:	91 f0       	breq	.+36     	; 0x3210 <menu_controller+0x4a0>
    31ec:	8c e0       	ldi	r24, 0x0C	; 12
    31ee:	15 c0       	rjmp	.+42     	; 0x321a <menu_controller+0x4aa>
        ret=true;
    } else if (!menu_locked) {    
    31f0:	99 23       	and	r25, r25
    31f2:	79 f5       	brne	.+94     	; 0x3252 <menu_controller+0x4e2>
        if (kb_events & KB_EVENT_ALL_LONG) { // service menu
    31f4:	34 ff       	sbrs	r19, 4
    31f6:	02 c0       	rjmp	.+4      	; 0x31fc <menu_controller+0x48c>
            menu_state = menu_service1;
    31f8:	8d e0       	ldi	r24, 0x0D	; 13
    31fa:	0f c0       	rjmp	.+30     	; 0x321a <menu_controller+0x4aa>
            ret=true;
#if (! REMOTE_SETTING_ONLY)
        } else if ( kb_events & KB_EVENT_AUTO_LONG ) {
    31fc:	32 ff       	sbrs	r19, 2
    31fe:	02 c0       	rjmp	.+4      	; 0x3204 <menu_controller+0x494>
    		menu_state=menu_set_year;
    3200:	80 e1       	ldi	r24, 0x10	; 16
    3202:	0b c0       	rjmp	.+22     	; 0x321a <menu_controller+0x4aa>
            ret=true; 
        } else if ( kb_events & KB_EVENT_PROG_LONG ) {
    3204:	30 ff       	sbrs	r19, 0
    3206:	02 c0       	rjmp	.+4      	; 0x320c <menu_controller+0x49c>
			menu_state=menu_set_timmer_dow_start;
    3208:	85 e1       	ldi	r24, 0x15	; 21
    320a:	07 c0       	rjmp	.+14     	; 0x321a <menu_controller+0x4aa>
            ret=true; 
#endif
        } else if (( kb_events & KB_EVENT_NONE_LONG ) 
    320c:	35 ff       	sbrs	r19, 5
    320e:	02 c0       	rjmp	.+4      	; 0x3214 <menu_controller+0x4a4>
#if NO_AUTORETURN_FROM_ALT_MENUES 
           && ! (((menu_state>=menu_home2) && (menu_state<=menu_home5)) || menu_state==menu_service_watch)
#endif  
		   ) {
	        menu_state=menu_home; // retun to main home screen
    3210:	87 e0       	ldi	r24, 0x07	; 7
    3212:	03 c0       	rjmp	.+6      	; 0x321a <menu_controller+0x4aa>
            ret=true;
#if (! REMOTE_SETTING_ONLY)
        } else if ( kb_events & KB_EVENT_C_LONG ) {
    3214:	31 ff       	sbrs	r19, 1
    3216:	1d c0       	rjmp	.+58     	; 0x3252 <menu_controller+0x4e2>
            menu_state=menu_preset_temp0; 
    3218:	82 e0       	ldi	r24, 0x02	; 2
    321a:	80 93 b7 02 	sts	0x02B7, r24
            if (wheel != 0) ret=true;
        }
        break;
    }
    if (events_common()) ret=true;
    if (ret && (service_idx<CONFIG_RAW_SIZE)) {
    321e:	10 91 1a 01 	lds	r17, 0x011A
    3222:	19 32       	cpi	r17, 0x29	; 41
    3224:	58 f4       	brcc	.+22     	; 0x323c <menu_controller+0x4cc>
        // back config to default value
        config_raw[service_idx] = config_value(service_idx);
    3226:	81 2f       	mov	r24, r17
    3228:	60 e0       	ldi	r22, 0x00	; 0
    322a:	f1 da       	rcall	.-2590   	; 0x280e <config_read>
    322c:	e1 2f       	mov	r30, r17
    322e:	f0 e0       	ldi	r31, 0x00	; 0
    3230:	e6 57       	subi	r30, 0x76	; 118
    3232:	fd 4f       	sbci	r31, 0xFD	; 253
    3234:	80 83       	st	Z, r24
        service_idx = CONFIG_RAW_SIZE;
    3236:	89 e2       	ldi	r24, 0x29	; 41
    3238:	80 93 1a 01 	sts	0x011A, r24
    323c:	81 e0       	ldi	r24, 0x01	; 1
    }
    kb_events = 0; // clear unused keys
    323e:	10 92 19 02 	sts	0x0219, r1
    3242:	10 92 18 02 	sts	0x0218, r1
    return ret;
} 
    3246:	df 91       	pop	r29
    3248:	cf 91       	pop	r28
    324a:	1f 91       	pop	r17
    324c:	ff 90       	pop	r15
    324e:	ef 90       	pop	r14
    3250:	08 95       	ret
            if (wheel != 0) ret=true;
        }
        break;
    }
    if (events_common()) ret=true;
    if (ret && (service_idx<CONFIG_RAW_SIZE)) {
    3252:	88 23       	and	r24, r24
    3254:	a1 f3       	breq	.-24     	; 0x323e <menu_controller+0x4ce>
    3256:	e3 cf       	rjmp	.-58     	; 0x321e <menu_controller+0x4ae>

00003258 <LCD_AllSegments>:
 *  \param mode  \ref LCD_MODE_ON, \ref LCD_MODE_OFF
 ******************************************************************************/
void LCD_AllSegments(uint8_t mode)
{
    uint8_t i;
    uint8_t val = (mode==LCD_MODE_ON)?0xff:0x00;
    3258:	83 30       	cpi	r24, 0x03	; 3
    325a:	11 f0       	breq	.+4      	; 0x3260 <LCD_AllSegments+0x8>
    325c:	20 e0       	ldi	r18, 0x00	; 0
    325e:	01 c0       	rjmp	.+2      	; 0x3262 <LCD_AllSegments+0xa>
    3260:	2f ef       	ldi	r18, 0xFF	; 255
    3262:	80 e0       	ldi	r24, 0x00	; 0
    3264:	90 e0       	ldi	r25, 0x00	; 0

    for (i=0; i<LCD_REGISTER_COUNT*LCD_BITPLANES; i++){
            ((uint8_t *)LCD_Data)[i] = val;
    3266:	fc 01       	movw	r30, r24
    3268:	e8 54       	subi	r30, 0x48	; 72
    326a:	fd 4f       	sbci	r31, 0xFD	; 253
    326c:	20 83       	st	Z, r18
    326e:	01 96       	adiw	r24, 0x01	; 1
void LCD_AllSegments(uint8_t mode)
{
    uint8_t i;
    uint8_t val = (mode==LCD_MODE_ON)?0xff:0x00;

    for (i=0; i<LCD_REGISTER_COUNT*LCD_BITPLANES; i++){
    3270:	82 31       	cpi	r24, 0x12	; 18
    3272:	91 05       	cpc	r25, r1
    3274:	c1 f7       	brne	.-16     	; 0x3266 <LCD_AllSegments+0xe>
            ((uint8_t *)LCD_Data)[i] = val;
    }
	LCD_used_bitplanes=1;
    3276:	91 e0       	ldi	r25, 0x01	; 1
    3278:	90 93 1b 01 	sts	0x011B, r25
    LCD_Update();
    327c:	80 91 e4 00 	lds	r24, 0x00E4
    3280:	88 60       	ori	r24, 0x08	; 8
    3282:	80 93 e4 00 	sts	0x00E4, r24
    3286:	90 93 7a 02 	sts	0x027A, r25
}
    328a:	08 95       	ret

0000328c <LCD_Init>:
 *  - Set up the LCD (timing, contrast, etc.)
 ******************************************************************************/
void LCD_Init(void)
{
    // Clear segment buffer.
    LCD_AllSegments(false);
    328c:	80 e0       	ldi	r24, 0x00	; 0
    328e:	e4 df       	rcall	.-56     	; 0x3258 <LCD_AllSegments>

    //Set the initial LCD contrast level
    LCDCCR = (config.lcd_contrast << LCDCC0);
    3290:	80 91 8a 02 	lds	r24, 0x028A
    3294:	80 93 e7 00 	sts	0x00E7, r24

    // LCD Control and Status Register B
    //   - clock source is TOSC1 pin
    //   - COM0:2 connected
    //   - SEG0:22 connected
	LCDCRB = (1<<LCDCS) | (1<<LCDMUX1) | (1<<LCDPM2)| (1<<LCDPM0);
    3298:	85 ea       	ldi	r24, 0xA5	; 165
    329a:	80 93 e5 00 	sts	0x00E5, r24

    // LCD Frame Rate Register
    //   - LCD Prescaler Select N=16       @32.768Hz ->   2048Hz
    //   - LCD Duty Cycle 1/3 (K=6)       2048Hz / 6 -> 341,33Hz
    //   - LCD Clock Divider  (D=5)     341,33Hz / 7 ->  47,76Hz
    LCDFRR = ((1<<LCDCD2)|(1<<LCDCD1));
    329e:	86 e0       	ldi	r24, 0x06	; 6
    32a0:	80 93 e6 00 	sts	0x00E6, r24

    // LCD Control and Status Register A
    //  - Enable LCD
    //  - Set Low Power Waveform
    LCDCRA = (1<<LCDEN) | (1<<LCDAB);
    32a4:	e4 ee       	ldi	r30, 0xE4	; 228
    32a6:	f0 e0       	ldi	r31, 0x00	; 0
    32a8:	80 ec       	ldi	r24, 0xC0	; 192
    32aa:	80 83       	st	Z, r24

    // Enable LCD start of frame interrupt
    LCDCRA |= (1<<LCDIE);
    32ac:	80 81       	ld	r24, Z
    32ae:	88 60       	ori	r24, 0x08	; 8
    32b0:	80 83       	st	Z, r24

	LCD_used_bitplanes=1;
    32b2:	81 e0       	ldi	r24, 0x01	; 1
    32b4:	80 93 1b 01 	sts	0x011B, r24
}
    32b8:	08 95       	ret

000032ba <LCD_HourBarBitmap>:
 *
 *  \param bitmap of hour bar segment 0-23 (bit0 is segment0 etc.)
 *  \note blink is not supported
 ******************************************************************************/
void LCD_HourBarBitmap(uint32_t bitmap)
{
    32ba:	ef 92       	push	r14
    32bc:	ff 92       	push	r15
    32be:	0f 93       	push	r16
    32c0:	cf 93       	push	r28
    32c2:	df 93       	push	r29
        uint8_t segment = pgm_read_byte(&LCD_SegHourBarOffsetTablePrgMem[i]);
        LCD_SetSeg(segment, (((uint8_t)bitmap & 1)? LCD_MODE_ON : LCD_MODE_OFF ));
        bitmap = bitmap>>1;
    }
#else
    asm volatile (
    32c4:	7b 01       	movw	r14, r22
    32c6:	08 2f       	mov	r16, r24
    32c8:	ce e7       	ldi	r28, 0x7E	; 126
    32ca:	d2 e0       	ldi	r29, 0x02	; 2

000032cc <L2>:
    32cc:	fe 01       	movw	r30, r28
    32ce:	84 91       	lpm	r24, Z+
    32d0:	66 27       	eor	r22, r22
    32d2:	06 95       	lsr	r16
    32d4:	f7 94       	ror	r15
    32d6:	e7 94       	ror	r14
    32d8:	08 f4       	brcc	.+2      	; 0x32dc <L3>
    32da:	63 e0       	ldi	r22, 0x03	; 3

000032dc <L3>:
    32dc:	09 d0       	rcall	.+18     	; 0x32f0 <LCD_SetSeg>
    32de:	21 96       	adiw	r28, 0x01	; 1
    32e0:	c6 39       	cpi	r28, 0x96	; 150
    32e2:	a1 f7       	brne	.-24     	; 0x32cc <L2>
    :
    : "I" (LCD_MODE_ON)
    : "r14", "r15", "r16", "r28", "r29", "r30", "r31"
    );
#endif
}
    32e4:	df 91       	pop	r29
    32e6:	cf 91       	pop	r28
    32e8:	0f 91       	pop	r16
    32ea:	ff 90       	pop	r15
    32ec:	ef 90       	pop	r14
    32ee:	08 95       	ret

000032f0 <LCD_SetSeg>:
{
    uint8_t r;
    uint8_t b;

    // Register = segment DIV 8
    r = seg / 8;
    32f0:	48 2f       	mov	r20, r24
    32f2:	46 95       	lsr	r20
    32f4:	46 95       	lsr	r20
    32f6:	46 95       	lsr	r20
    // Bitposition = segment mod 8
    b = 1<<(seg % 8);
    32f8:	87 70       	andi	r24, 0x07	; 7
    32fa:	21 e0       	ldi	r18, 0x01	; 1
    32fc:	30 e0       	ldi	r19, 0x00	; 0
    32fe:	01 c0       	rjmp	.+2      	; 0x3302 <LCD_SetSeg+0x12>
    3300:	22 0f       	add	r18, r18
    3302:	8a 95       	dec	r24
    3304:	ea f7       	brpl	.-6      	; 0x3300 <LCD_SetSeg+0x10>

    // Set bits in each bitplane
	#if LCD_BITPLANES == 2
        if (mode & 1){
    3306:	36 2f       	mov	r19, r22
    3308:	e4 2f       	mov	r30, r20
    330a:	f0 e0       	ldi	r31, 0x00	; 0
    330c:	60 ff       	sbrs	r22, 0
    330e:	05 c0       	rjmp	.+10     	; 0x331a <LCD_SetSeg+0x2a>
            // Set Bit in Bitplane if ON (0b11) or Blinkmode 1 (0b01)
            LCD_Data[0][r] |= b;
    3310:	e8 54       	subi	r30, 0x48	; 72
    3312:	fd 4f       	sbci	r31, 0xFD	; 253
    3314:	80 81       	ld	r24, Z
    3316:	82 2b       	or	r24, r18
    3318:	06 c0       	rjmp	.+12     	; 0x3326 <LCD_SetSeg+0x36>
        } else {
            // Clear Bit in Bitplane if OFF (0b00) or Blinkmode 2 (0b10)
            LCD_Data[0][r] &= ~b;
    331a:	e8 54       	subi	r30, 0x48	; 72
    331c:	fd 4f       	sbci	r31, 0xFD	; 253
    331e:	90 81       	ld	r25, Z
    3320:	82 2f       	mov	r24, r18
    3322:	80 95       	com	r24
    3324:	89 23       	and	r24, r25
    3326:	80 83       	st	Z, r24
    3328:	e4 2f       	mov	r30, r20
    332a:	f0 e0       	ldi	r31, 0x00	; 0
        } 
        if (mode & 2){
    332c:	31 ff       	sbrs	r19, 1
    332e:	05 c0       	rjmp	.+10     	; 0x333a <LCD_SetSeg+0x4a>
            // Set Bit in Bitplane if ON (0b11) or Blinkmode 2 (0b10)
            LCD_Data[1][r] |= b;
    3330:	e8 54       	subi	r30, 0x48	; 72
    3332:	fd 4f       	sbci	r31, 0xFD	; 253
    3334:	81 85       	ldd	r24, Z+9	; 0x09
    3336:	28 2b       	or	r18, r24
    3338:	05 c0       	rjmp	.+10     	; 0x3344 <LCD_SetSeg+0x54>
        } else {
            // Clear Bit in Bitplane if OFF (0b00) or Blinkmode 1 (0b01)
            LCD_Data[1][r] &= ~b;
    333a:	e8 54       	subi	r30, 0x48	; 72
    333c:	fd 4f       	sbci	r31, 0xFD	; 253
    333e:	81 85       	ldd	r24, Z+9	; 0x09
    3340:	20 95       	com	r18
    3342:	28 23       	and	r18, r24
    3344:	21 87       	std	Z+9, r18	; 0x09
 *  \note copy LCD_Data to LCDREG
 *
 ******************************************************************************/
static void LCD_calc_used_bitplanes(uint8_t mode) {
    uint8_t i;
	if ((mode==LCD_MODE_BLINK_1)||(mode==LCD_MODE_BLINK_2)) {
    3346:	61 50       	subi	r22, 0x01	; 1
    3348:	62 30       	cpi	r22, 0x02	; 2
    334a:	68 f0       	brcs	.+26     	; 0x3366 <LCD_SetSeg+0x76>
		LCD_used_bitplanes=2;
		return; // just optimalization
	} 
	// mode must be LCD_MODE_ON or LCD_MODE_OFF
	if (LCD_used_bitplanes==1) {
    334c:	80 91 1b 01 	lds	r24, 0x011B
    3350:	81 30       	cpi	r24, 0x01	; 1
    3352:	a9 f0       	breq	.+42     	; 0x337e <LCD_SetSeg+0x8e>
    3354:	20 e0       	ldi	r18, 0x00	; 0
    3356:	30 e0       	ldi	r19, 0x00	; 0

    for (i=0; i<LCD_REGISTER_COUNT; i++){
		#if LCD_BITPLANES != 2
			#error optimized for 2 bitplanes // TODO openHR?
		#endif
		if (LCD_Data[0][i] != LCD_Data[1][i]) {
    3358:	f9 01       	movw	r30, r18
    335a:	e8 54       	subi	r30, 0x48	; 72
    335c:	fd 4f       	sbci	r31, 0xFD	; 253
    335e:	90 81       	ld	r25, Z
    3360:	81 85       	ldd	r24, Z+9	; 0x09
    3362:	98 17       	cp	r25, r24
    3364:	21 f0       	breq	.+8      	; 0x336e <LCD_SetSeg+0x7e>
			LCD_used_bitplanes=2;
    3366:	82 e0       	ldi	r24, 0x02	; 2
    3368:	80 93 1b 01 	sts	0x011B, r24
    336c:	08 95       	ret
    336e:	2f 5f       	subi	r18, 0xFF	; 255
    3370:	3f 4f       	sbci	r19, 0xFF	; 255
	// mode must be LCD_MODE_ON or LCD_MODE_OFF
	if (LCD_used_bitplanes==1) {
		return; // just optimalization, nothing to do
	} 

    for (i=0; i<LCD_REGISTER_COUNT; i++){
    3372:	29 30       	cpi	r18, 0x09	; 9
    3374:	31 05       	cpc	r19, r1
    3376:	81 f7       	brne	.-32     	; 0x3358 <LCD_SetSeg+0x68>
		if (LCD_Data[0][i] != LCD_Data[1][i]) {
			LCD_used_bitplanes=2;
			return; // it is done
		}
	}
	LCD_used_bitplanes=1;
    3378:	81 e0       	ldi	r24, 0x01	; 1
    337a:	80 93 1b 01 	sts	0x011B, r24
    337e:	08 95       	ret

00003380 <LCD_SetHourBarSeg>:
 ******************************************************************************/
void LCD_SetHourBarSeg(uint8_t seg, uint8_t mode)
{
    uint8_t segment;
    // Get segment number for this element
    segment = pgm_read_byte(&LCD_SegHourBarOffsetTablePrgMem[seg]);
    3380:	ee e7       	ldi	r30, 0x7E	; 126
    3382:	f2 e0       	ldi	r31, 0x02	; 2
    3384:	e8 0f       	add	r30, r24
    3386:	f1 1d       	adc	r31, r1
    3388:	e4 91       	lpm	r30, Z+
    // Set segment 
    LCD_SetSeg(segment, mode);
    338a:	8e 2f       	mov	r24, r30
}
    338c:	b1 cf       	rjmp	.-158    	; 0x32f0 <LCD_SetSeg>

0000338e <LCD_PrintChar>:
 *  \param value
 *        - 0: clears all digits,
 *        - other: set all digits
 ******************************************************************************/
void LCD_PrintChar(uint8_t value, uint8_t pos, uint8_t mode)
{
    338e:	ef 92       	push	r14
    3390:	ff 92       	push	r15
    3392:	0f 93       	push	r16
    3394:	1f 93       	push	r17
    3396:	cf 93       	push	r28
    3398:	df 93       	push	r29
    339a:	e4 2e       	mov	r14, r20
    uint8_t seg;
    uint8_t i;
    uint8_t mask;

    // Boundary Check 
    if ((pos < LCD_MAX_POS) && (value < LCD_MAX_CHARS)) {
    339c:	64 30       	cpi	r22, 0x04	; 4
    339e:	08 f5       	brcc	.+66     	; 0x33e2 <LCD_PrintChar+0x54>
    33a0:	8a 32       	cpi	r24, 0x2A	; 42
    33a2:	f8 f4       	brcc	.+62     	; 0x33e2 <LCD_PrintChar+0x54>

        // Get Fieldbase for Position
        fieldbase = pgm_read_byte(&LCD_FieldOffsetTablePrgMem[pos]);
    33a4:	e6 2f       	mov	r30, r22
    33a6:	f0 e0       	ldi	r31, 0x00	; 0
    33a8:	ed 58       	subi	r30, 0x8D	; 141
    33aa:	fd 4f       	sbci	r31, 0xFD	; 253
    33ac:	f4 90       	lpm	r15, Z+

        // Get Bitmap for Value
        bitmap = pgm_read_byte(&LCD_CharTablePrgMem[value]);
    33ae:	e8 2f       	mov	r30, r24
    33b0:	f0 e0       	ldi	r31, 0x00	; 0
    33b2:	e3 51       	subi	r30, 0x13	; 19
    33b4:	fe 4f       	sbci	r31, 0xFE	; 254
    33b6:	04 91       	lpm	r16, Z+
    33b8:	c7 e7       	ldi	r28, 0x77	; 119
    33ba:	d2 e0       	ldi	r29, 0x02	; 2
    33bc:	11 e0       	ldi	r17, 0x01	; 1
        mask = 1;

        // Set 7 Bits
        for (i=0; i<7; i++){
            seg = fieldbase + pgm_read_byte(&LCD_SegOffsetTablePrgMem[i]);
    33be:	fe 01       	movw	r30, r28
    33c0:	94 91       	lpm	r25, Z+
            // Set or Clear?
            LCD_SetSeg(seg,((bitmap & mask)?mode:LCD_MODE_OFF));
    33c2:	81 2f       	mov	r24, r17
    33c4:	80 23       	and	r24, r16
    33c6:	11 f4       	brne	.+4      	; 0x33cc <LCD_PrintChar+0x3e>
    33c8:	60 e0       	ldi	r22, 0x00	; 0
    33ca:	01 c0       	rjmp	.+2      	; 0x33ce <LCD_PrintChar+0x40>
    33cc:	6e 2d       	mov	r22, r14
    33ce:	89 2f       	mov	r24, r25
    33d0:	8f 0d       	add	r24, r15
    33d2:	8e df       	rcall	.-228    	; 0x32f0 <LCD_SetSeg>
    33d4:	21 96       	adiw	r28, 0x01	; 1
        // Get Bitmap for Value
        bitmap = pgm_read_byte(&LCD_CharTablePrgMem[value]);
        mask = 1;

        // Set 7 Bits
        for (i=0; i<7; i++){
    33d6:	f2 e0       	ldi	r31, 0x02	; 2
    33d8:	ce 37       	cpi	r28, 0x7E	; 126
    33da:	df 07       	cpc	r29, r31
    33dc:	11 f0       	breq	.+4      	; 0x33e2 <LCD_PrintChar+0x54>
            seg = fieldbase + pgm_read_byte(&LCD_SegOffsetTablePrgMem[i]);
            // Set or Clear?
            LCD_SetSeg(seg,((bitmap & mask)?mode:LCD_MODE_OFF));
            mask <<= 1;
    33de:	11 0f       	add	r17, r17
    33e0:	ee cf       	rjmp	.-36     	; 0x33be <LCD_PrintChar+0x30>
        }
    }
}
    33e2:	cd b7       	in	r28, 0x3d	; 61
    33e4:	de b7       	in	r29, 0x3e	; 62
    33e6:	e6 e0       	ldi	r30, 0x06	; 6
    33e8:	b4 c2       	rjmp	.+1384   	; 0x3952 <__epilogue_restores__+0x18>

000033ea <LCD_PrintDec>:
 *  \param value value to be printed (0-99)
 *  \param pos   position in lcd 
 *  \param mode  \ref LCD_MODE_ON, \ref LCD_MODE_OFF, \ref LCD_MODE_BLINK_1
 ******************************************************************************/
void LCD_PrintDec(uint8_t value, uint8_t pos, uint8_t mode)
{
    33ea:	ff 92       	push	r15
    33ec:	0f 93       	push	r16
    33ee:	1f 93       	push	r17
    33f0:	08 2f       	mov	r16, r24
    33f2:	16 2f       	mov	r17, r22
    33f4:	f4 2e       	mov	r15, r20
    uint8_t tmp;
    // Boundary Check
    if ((pos <= 2) && (value < 100)) {
    33f6:	63 30       	cpi	r22, 0x03	; 3
    33f8:	70 f4       	brcc	.+28     	; 0x3416 <LCD_PrintDec+0x2c>
    33fa:	84 36       	cpi	r24, 0x64	; 100
    33fc:	60 f4       	brcc	.+24     	; 0x3416 <LCD_PrintDec+0x2c>
        // 1st Digit at 0 (2)
        tmp = value % 10;
        LCD_PrintChar(tmp, pos, mode);
    33fe:	6a e0       	ldi	r22, 0x0A	; 10
    3400:	03 d2       	rcall	.+1030   	; 0x3808 <__udivmodqi4>
    3402:	89 2f       	mov	r24, r25
    3404:	61 2f       	mov	r22, r17
    3406:	c3 df       	rcall	.-122    	; 0x338e <LCD_PrintChar>
        pos++;
        // 2nd Digit at 1 (3)
        tmp = value / 10;
        LCD_PrintChar(tmp, pos, mode);
    3408:	80 2f       	mov	r24, r16
    340a:	6a e0       	ldi	r22, 0x0A	; 10
    340c:	fd d1       	rcall	.+1018   	; 0x3808 <__udivmodqi4>
    340e:	1f 5f       	subi	r17, 0xFF	; 255
    3410:	61 2f       	mov	r22, r17
    3412:	4f 2d       	mov	r20, r15
    3414:	bc df       	rcall	.-136    	; 0x338e <LCD_PrintChar>
    }
}
    3416:	1f 91       	pop	r17
    3418:	0f 91       	pop	r16
    341a:	ff 90       	pop	r15
    341c:	08 95       	ret

0000341e <LCD_PrintDecW>:
 *
 *  \param value value to be printed (0-9999)
 *  \param mode  \ref LCD_MODE_ON, \ref LCD_MODE_OFF, \ref LCD_MODE_BLINK_1
 ******************************************************************************/
void LCD_PrintDecW(uint16_t value, uint8_t mode)
{
    341e:	1f 93       	push	r17
    3420:	cf 93       	push	r28
    3422:	df 93       	push	r29
    3424:	16 2f       	mov	r17, r22
    3426:	ec 01       	movw	r28, r24
    3428:	87 e2       	ldi	r24, 0x27	; 39
    342a:	c0 31       	cpi	r28, 0x10	; 16
    342c:	d8 07       	cpc	r29, r24
    342e:	10 f0       	brcs	.+4      	; 0x3434 <LCD_PrintDecW+0x16>
    3430:	cf e0       	ldi	r28, 0x0F	; 15
    3432:	d7 e2       	ldi	r29, 0x27	; 39
    if (value > 9999){
        value = 9999;        
    }
    // Print     
    tmp = (uint8_t) (value / 100);
    LCD_PrintDec(tmp, 2, mode);
    3434:	ce 01       	movw	r24, r28
    3436:	64 e6       	ldi	r22, 0x64	; 100
    3438:	70 e0       	ldi	r23, 0x00	; 0
    343a:	ff d1       	rcall	.+1022   	; 0x383a <__udivmodhi4>
    343c:	86 2f       	mov	r24, r22
    343e:	62 e0       	ldi	r22, 0x02	; 2
    3440:	41 2f       	mov	r20, r17
    3442:	d3 df       	rcall	.-90     	; 0x33ea <LCD_PrintDec>
    tmp = (uint8_t) (value % 100);
    LCD_PrintDec(tmp, 0, mode);
    3444:	ce 01       	movw	r24, r28
    3446:	64 e6       	ldi	r22, 0x64	; 100
    3448:	70 e0       	ldi	r23, 0x00	; 0
    344a:	f7 d1       	rcall	.+1006   	; 0x383a <__udivmodhi4>
    344c:	60 e0       	ldi	r22, 0x00	; 0
    344e:	41 2f       	mov	r20, r17
    3450:	cc df       	rcall	.-104    	; 0x33ea <LCD_PrintDec>
}
    3452:	df 91       	pop	r29
    3454:	cf 91       	pop	r28
    3456:	1f 91       	pop	r17
    3458:	08 95       	ret

0000345a <LCD_PrintDec3>:
 *  \param value value to be printed (0-999)
 *  \param pos   position in lcd
 *  \param mode  \ref LCD_MODE_ON, \ref LCD_MODE_OFF, \ref LCD_MODE_BLINK_1
 ******************************************************************************/
void LCD_PrintDec3(uint16_t value, uint8_t pos, uint8_t mode)
{
    345a:	0f 93       	push	r16
    345c:	1f 93       	push	r17
    345e:	cf 93       	push	r28
    3460:	df 93       	push	r29
    3462:	9c 01       	movw	r18, r24
    3464:	16 2f       	mov	r17, r22
    3466:	04 2f       	mov	r16, r20
    if (value>999) value=999;
    if (pos <= 1) {
    3468:	62 30       	cpi	r22, 0x02	; 2
    346a:	b8 f4       	brcc	.+46     	; 0x349a <LCD_PrintDec3+0x40>
    346c:	ec 01       	movw	r28, r24
    346e:	83 e0       	ldi	r24, 0x03	; 3
    3470:	28 3e       	cpi	r18, 0xE8	; 232
    3472:	38 07       	cpc	r19, r24
    3474:	10 f0       	brcs	.+4      	; 0x347a <LCD_PrintDec3+0x20>
    3476:	c7 ee       	ldi	r28, 0xE7	; 231
    3478:	d3 e0       	ldi	r29, 0x03	; 3
        // 3nd Digit 
        LCD_PrintChar(value / 100, pos+2, mode);
    347a:	ce 01       	movw	r24, r28
    347c:	64 e6       	ldi	r22, 0x64	; 100
    347e:	70 e0       	ldi	r23, 0x00	; 0
    3480:	dc d1       	rcall	.+952    	; 0x383a <__udivmodhi4>
    3482:	86 2f       	mov	r24, r22
    3484:	61 2f       	mov	r22, r17
    3486:	6e 5f       	subi	r22, 0xFE	; 254
    3488:	40 2f       	mov	r20, r16
    348a:	81 df       	rcall	.-254    	; 0x338e <LCD_PrintChar>
        LCD_PrintDec(value%100, pos, mode);
    348c:	ce 01       	movw	r24, r28
    348e:	64 e6       	ldi	r22, 0x64	; 100
    3490:	70 e0       	ldi	r23, 0x00	; 0
    3492:	d3 d1       	rcall	.+934    	; 0x383a <__udivmodhi4>
    3494:	61 2f       	mov	r22, r17
    3496:	40 2f       	mov	r20, r16
    3498:	a8 df       	rcall	.-176    	; 0x33ea <LCD_PrintDec>
    }
}
    349a:	df 91       	pop	r29
    349c:	cf 91       	pop	r28
    349e:	1f 91       	pop	r17
    34a0:	0f 91       	pop	r16
    34a2:	08 95       	ret

000034a4 <LCD_PrintHex>:
 *  \param value value to be printed (0-0xff)
 *  \param pos   position in lcd 0:left, 1:right
 *  \param mode  \ref LCD_MODE_ON, \ref LCD_MODE_OFF, \ref LCD_MODE_BLINK_1
 ******************************************************************************/
void LCD_PrintHex(uint8_t value, uint8_t pos, uint8_t mode)
{
    34a4:	ff 92       	push	r15
    34a6:	0f 93       	push	r16
    34a8:	1f 93       	push	r17
    34aa:	08 2f       	mov	r16, r24
    34ac:	16 2f       	mov	r17, r22
    34ae:	f4 2e       	mov	r15, r20
    uint8_t tmp;
    // Boundary Check
    if (pos <= 2) {
    34b0:	63 30       	cpi	r22, 0x03	; 3
    34b2:	48 f4       	brcc	.+18     	; 0x34c6 <LCD_PrintHex+0x22>
        // 1st Digit at 0 (2)
        tmp = value % 16;
        LCD_PrintChar(tmp, pos, mode);
    34b4:	8f 70       	andi	r24, 0x0F	; 15
    34b6:	6b df       	rcall	.-298    	; 0x338e <LCD_PrintChar>
        pos++;
        // 2nd Digit at 1 (3)
        tmp = value / 16;
        LCD_PrintChar(tmp, pos, mode);
    34b8:	1f 5f       	subi	r17, 0xFF	; 255
    34ba:	80 2f       	mov	r24, r16
    34bc:	82 95       	swap	r24
    34be:	8f 70       	andi	r24, 0x0F	; 15
    34c0:	61 2f       	mov	r22, r17
    34c2:	4f 2d       	mov	r20, r15
    34c4:	64 df       	rcall	.-312    	; 0x338e <LCD_PrintChar>
    }
}
    34c6:	1f 91       	pop	r17
    34c8:	0f 91       	pop	r16
    34ca:	ff 90       	pop	r15
    34cc:	08 95       	ret

000034ce <LCD_PrintHexW>:
 *
 *  \param value value to be printed (0-0xffff)
 *  \param mode  \ref LCD_MODE_ON, \ref LCD_MODE_OFF, \ref LCD_MODE_BLINK_1
 ******************************************************************************/
void LCD_PrintHexW(uint16_t value, uint8_t mode)
{
    34ce:	0f 93       	push	r16
    34d0:	1f 93       	push	r17
    34d2:	08 2f       	mov	r16, r24
    34d4:	16 2f       	mov	r17, r22
    uint8_t tmp;
    // Print     
    tmp = (uint8_t) (value >> 8);
    LCD_PrintHex(tmp, 2, mode);
    34d6:	89 2f       	mov	r24, r25
    34d8:	62 e0       	ldi	r22, 0x02	; 2
    34da:	41 2f       	mov	r20, r17
    34dc:	e3 df       	rcall	.-58     	; 0x34a4 <LCD_PrintHex>
    tmp = (uint8_t) (value & 0xff);
    LCD_PrintHex(tmp, 0, mode);
    34de:	80 2f       	mov	r24, r16
    34e0:	60 e0       	ldi	r22, 0x00	; 0
    34e2:	41 2f       	mov	r20, r17
    34e4:	df df       	rcall	.-66     	; 0x34a4 <LCD_PrintHex>
}
    34e6:	1f 91       	pop	r17
    34e8:	0f 91       	pop	r16
    34ea:	08 95       	ret

000034ec <LCD_PrintStringID>:
 *
 *  \note  something weird due to 7 Segments
 *
 *  \param mode  \ref LCD_MODE_ON, \ref LCD_MODE_OFF, \ref LCD_MODE_BLINK_1
 ******************************************************************************/
void LCD_PrintStringID(uint8_t id, uint8_t mode) {
    34ec:	0f 93       	push	r16
    34ee:	1f 93       	push	r17
    34f0:	cf 93       	push	r28
    34f2:	df 93       	push	r29
    34f4:	06 2f       	mov	r16, r22
    34f6:	c8 2f       	mov	r28, r24
    34f8:	d0 e0       	ldi	r29, 0x00	; 0
    34fa:	cc 0f       	add	r28, r28
    34fc:	dd 1f       	adc	r29, r29
    34fe:	cc 0f       	add	r28, r28
    3500:	dd 1f       	adc	r29, r29
    3502:	c9 5e       	subi	r28, 0xE9	; 233
    3504:	dd 4f       	sbci	r29, 0xFD	; 253
    3506:	13 e0       	ldi	r17, 0x03	; 3
    uint8_t i;
    uint8_t tmp;
    // Put 4 chars
    for (i=0; i<4; i++) {
        tmp = pgm_read_byte(&LCD_StringTable[id][i]);
    3508:	fe 01       	movw	r30, r28
    350a:	84 91       	lpm	r24, Z+
        LCD_PrintChar(tmp, 3-i, mode);
    350c:	61 2f       	mov	r22, r17
    350e:	40 2f       	mov	r20, r16
    3510:	3e df       	rcall	.-388    	; 0x338e <LCD_PrintChar>
    3512:	11 50       	subi	r17, 0x01	; 1
    3514:	21 96       	adiw	r28, 0x01	; 1
 ******************************************************************************/
void LCD_PrintStringID(uint8_t id, uint8_t mode) {
    uint8_t i;
    uint8_t tmp;
    // Put 4 chars
    for (i=0; i<4; i++) {
    3516:	1f 3f       	cpi	r17, 0xFF	; 255
    3518:	b9 f7       	brne	.-18     	; 0x3508 <LCD_PrintStringID+0x1c>
        tmp = pgm_read_byte(&LCD_StringTable[id][i]);
        LCD_PrintChar(tmp, 3-i, mode);
    }
    LCD_SetSeg(LCD_SEG_COL1, LCD_MODE_OFF);
    351a:	8b e3       	ldi	r24, 0x3B	; 59
    351c:	60 e0       	ldi	r22, 0x00	; 0
    351e:	e8 de       	rcall	.-560    	; 0x32f0 <LCD_SetSeg>
}
    3520:	df 91       	pop	r29
    3522:	cf 91       	pop	r28
    3524:	1f 91       	pop	r17
    3526:	0f 91       	pop	r16
    3528:	08 95       	ret

0000352a <LCD_PrintTemp>:
 *     - TEMP_MAX+1          : \c ON  <BR>
 *     -    other: \c invalid <BR>
 *  \param mode  \ref LCD_MODE_ON, \ref LCD_MODE_OFF, \ref LCD_MODE_BLINK_1
 ******************************************************************************/
void LCD_PrintTemp(uint8_t temp, uint8_t mode)
{
    352a:	0f 93       	push	r16
    352c:	1f 93       	push	r17
    352e:	08 2f       	mov	r16, r24
    3530:	16 2f       	mov	r17, r22
    if (temp==TEMP_MIN-1){
    3532:	89 30       	cpi	r24, 0x09	; 9
    3534:	11 f4       	brne	.+4      	; 0x353a <LCD_PrintTemp+0x10>
        // OFF
        LCD_PrintStringID(LCD_STRING_OFF,mode); 
    3536:	8c e0       	ldi	r24, 0x0C	; 12
    3538:	07 c0       	rjmp	.+14     	; 0x3548 <LCD_PrintTemp+0x1e>
    } else if (temp==TEMP_MAX+1){
    353a:	8d 33       	cpi	r24, 0x3D	; 61
    353c:	11 f4       	brne	.+4      	; 0x3542 <LCD_PrintTemp+0x18>
        // On
        LCD_PrintStringID(LCD_STRING_On,mode); 
    353e:	8d e0       	ldi	r24, 0x0D	; 13
    3540:	03 c0       	rjmp	.+6      	; 0x3548 <LCD_PrintTemp+0x1e>
    } else if (temp>TEMP_MAX+1){
    3542:	8e 33       	cpi	r24, 0x3E	; 62
    3544:	20 f0       	brcs	.+8      	; 0x354e <LCD_PrintTemp+0x24>
        // Error -E rr
        LCD_PrintStringID(LCD_STRING_Err,mode); 
    3546:	8b e0       	ldi	r24, 0x0B	; 11
    3548:	61 2f       	mov	r22, r17
    354a:	d0 df       	rcall	.-96     	; 0x34ec <LCD_PrintStringID>
    354c:	19 c0       	rjmp	.+50     	; 0x3580 <LCD_PrintTemp+0x56>
    } else {
        LCD_PrintDec(temp>>1, 2, mode);
    354e:	86 95       	lsr	r24
    3550:	62 e0       	ldi	r22, 0x02	; 2
    3552:	41 2f       	mov	r20, r17
    3554:	4a df       	rcall	.-364    	; 0x33ea <LCD_PrintDec>
        LCD_PrintChar(((temp&1)?5:0), 1, mode);        
    3556:	00 fd       	sbrc	r16, 0
    3558:	02 c0       	rjmp	.+4      	; 0x355e <LCD_PrintTemp+0x34>
    355a:	80 e0       	ldi	r24, 0x00	; 0
    355c:	01 c0       	rjmp	.+2      	; 0x3560 <LCD_PrintTemp+0x36>
    355e:	85 e0       	ldi	r24, 0x05	; 5
    3560:	61 e0       	ldi	r22, 0x01	; 1
    3562:	41 2f       	mov	r20, r17
    3564:	14 df       	rcall	.-472    	; 0x338e <LCD_PrintChar>
        if (temp < (100/5)) {
    3566:	04 31       	cpi	r16, 0x14	; 20
    3568:	20 f4       	brcc	.+8      	; 0x3572 <LCD_PrintTemp+0x48>
            LCD_PrintChar(LCD_CHAR_NULL, 3, mode);
    356a:	80 e2       	ldi	r24, 0x20	; 32
    356c:	63 e0       	ldi	r22, 0x03	; 3
    356e:	41 2f       	mov	r20, r17
    3570:	0e df       	rcall	.-484    	; 0x338e <LCD_PrintChar>
        }        
        LCD_PrintChar(LCD_CHAR_C, 0, mode);
    3572:	8c e0       	ldi	r24, 0x0C	; 12
    3574:	60 e0       	ldi	r22, 0x00	; 0
    3576:	41 2f       	mov	r20, r17
    3578:	0a df       	rcall	.-492    	; 0x338e <LCD_PrintChar>
        LCD_SetSeg(LCD_SEG_COL1, mode);
    357a:	8b e3       	ldi	r24, 0x3B	; 59
    357c:	61 2f       	mov	r22, r17
    357e:	b8 de       	rcall	.-656    	; 0x32f0 <LCD_SetSeg>
    }
}
    3580:	1f 91       	pop	r17
    3582:	0f 91       	pop	r16
    3584:	08 95       	ret

00003586 <LCD_PrintTempInt>:
 *     min:  -999 => -9,9C
 *     max:  9999 => 99,9C
  *  \param mode  \ref LCD_MODE_ON, \ref LCD_MODE_OFF, \ref LCD_MODE_BLINK_1
 ******************************************************************************/
void LCD_PrintTempInt(int16_t temp, uint8_t mode)
{
    3586:	0f 93       	push	r16
    3588:	1f 93       	push	r17
    358a:	cf 93       	push	r28
    358c:	df 93       	push	r29
    358e:	16 2f       	mov	r17, r22
    3590:	ec 01       	movw	r28, r24
    3592:	8c ef       	ldi	r24, 0xFC	; 252
    3594:	c9 31       	cpi	r28, 0x19	; 25
    3596:	d8 07       	cpc	r29, r24
    3598:	14 f4       	brge	.+4      	; 0x359e <LCD_PrintTempInt+0x18>
    359a:	c9 e1       	ldi	r28, 0x19	; 25
    359c:	dc ef       	ldi	r29, 0xFC	; 252
    if (temp < -999){
        temp = -999;
    }
 
    // negative ?    
    neg = (temp < 0); 
    359e:	00 e0       	ldi	r16, 0x00	; 0
    35a0:	d7 ff       	sbrs	r29, 7
    35a2:	04 c0       	rjmp	.+8      	; 0x35ac <LCD_PrintTempInt+0x26>
    35a4:	01 e0       	ldi	r16, 0x01	; 1
    if (neg){        
        temp = -temp;    
    35a6:	d0 95       	com	r29
    35a8:	c1 95       	neg	r28
    35aa:	df 4f       	sbci	r29, 0xFF	; 255
    } 

    // 1/100C not printed
    LCD_PrintDec3(temp/10, 1, mode);
    35ac:	ce 01       	movw	r24, r28
    35ae:	6a e0       	ldi	r22, 0x0A	; 10
    35b0:	70 e0       	ldi	r23, 0x00	; 0
    35b2:	57 d1       	rcall	.+686    	; 0x3862 <__divmodhi4>
    35b4:	cb 01       	movw	r24, r22
    35b6:	61 e0       	ldi	r22, 0x01	; 1
    35b8:	41 2f       	mov	r20, r17
    35ba:	4f df       	rcall	.-354    	; 0x345a <LCD_PrintDec3>
    
    if (neg){
    35bc:	00 23       	and	r16, r16
    35be:	11 f0       	breq	.+4      	; 0x35c4 <LCD_PrintTempInt+0x3e>
        // negative Temp      
        LCD_PrintChar(LCD_CHAR_neg, 3, mode);
    35c0:	86 e1       	ldi	r24, 0x16	; 22
    35c2:	04 c0       	rjmp	.+8      	; 0x35cc <LCD_PrintTempInt+0x46>
    } else if (temp < 1000){
    35c4:	c8 5e       	subi	r28, 0xE8	; 232
    35c6:	d3 40       	sbci	r29, 0x03	; 3
    35c8:	24 f4       	brge	.+8      	; 0x35d2 <LCD_PrintTempInt+0x4c>
        // Temp < 10C
        LCD_PrintChar(LCD_CHAR_NULL, 3, mode);
    35ca:	80 e2       	ldi	r24, 0x20	; 32
    35cc:	63 e0       	ldi	r22, 0x03	; 3
    35ce:	41 2f       	mov	r20, r17
    35d0:	de de       	rcall	.-580    	; 0x338e <LCD_PrintChar>
    }                             

    // Print C on last segment
    LCD_PrintChar(LCD_CHAR_C, 0, mode);
    35d2:	8c e0       	ldi	r24, 0x0C	; 12
    35d4:	60 e0       	ldi	r22, 0x00	; 0
    35d6:	41 2f       	mov	r20, r17
    35d8:	da de       	rcall	.-588    	; 0x338e <LCD_PrintChar>
    LCD_SetSeg(LCD_SEG_COL1, mode);
    35da:	8b e3       	ldi	r24, 0x3B	; 59
    35dc:	61 2f       	mov	r22, r17
    35de:	88 de       	rcall	.-752    	; 0x32f0 <LCD_SetSeg>
}
    35e0:	df 91       	pop	r29
    35e2:	cf 91       	pop	r28
    35e4:	1f 91       	pop	r17
    35e6:	0f 91       	pop	r16
    35e8:	08 95       	ret

000035ea <task_lcd_update>:
 *  \note copy LCD_Data to LCDREG
 *
 ******************************************************************************/

void task_lcd_update(void) {
    if (++LCD_BlinkCounter > LCD_BLINK_FRAMES){
    35ea:	80 91 7b 02 	lds	r24, 0x027B
    35ee:	8f 5f       	subi	r24, 0xFF	; 255
    35f0:	80 93 7b 02 	sts	0x027B, r24
    35f4:	8d 30       	cpi	r24, 0x0D	; 13
    35f6:	58 f0       	brcs	.+22     	; 0x360e <task_lcd_update+0x24>
		#if LCD_BITPLANES == 2
			// optimized version for LCD_BITPLANES == 2
			LCD_Bitplane = (LCD_Bitplane +1) & 1;
    35f8:	80 91 7c 02 	lds	r24, 0x027C
    35fc:	8f 5f       	subi	r24, 0xFF	; 255
    35fe:	81 70       	andi	r24, 0x01	; 1
    3600:	80 93 7c 02 	sts	0x027C, r24
		#else
			LCD_Bitplane = (LCD_Bitplane +1) % LCD_BITPLANES;
		#endif
        LCD_BlinkCounter=0;
    3604:	10 92 7b 02 	sts	0x027B, r1
		LCD_force_update=1;
    3608:	81 e0       	ldi	r24, 0x01	; 1
    360a:	80 93 7a 02 	sts	0x027A, r24
    }


	if (LCD_force_update) {
    360e:	80 91 7a 02 	lds	r24, 0x027A
    3612:	88 23       	and	r24, r24
    3614:	51 f1       	breq	.+84     	; 0x366a <task_lcd_update+0x80>
		LCD_force_update=0;
    3616:	10 92 7a 02 	sts	0x027A, r1
		// Copy desired segment buffer to the real segments
    	LCDDR0 = LCD_Data[LCD_Bitplane][0];
    361a:	80 91 7c 02 	lds	r24, 0x027C
    361e:	90 e0       	ldi	r25, 0x00	; 0
    3620:	fc 01       	movw	r30, r24
    3622:	23 e0       	ldi	r18, 0x03	; 3
    3624:	ee 0f       	add	r30, r30
    3626:	ff 1f       	adc	r31, r31
    3628:	2a 95       	dec	r18
    362a:	e1 f7       	brne	.-8      	; 0x3624 <task_lcd_update+0x3a>
    362c:	e8 0f       	add	r30, r24
    362e:	f9 1f       	adc	r31, r25
    3630:	e8 54       	subi	r30, 0x48	; 72
    3632:	fd 4f       	sbci	r31, 0xFD	; 253
    3634:	80 81       	ld	r24, Z
    3636:	80 93 ec 00 	sts	0x00EC, r24
    	LCDDR1 = LCD_Data[LCD_Bitplane][1];
    363a:	81 81       	ldd	r24, Z+1	; 0x01
    363c:	80 93 ed 00 	sts	0x00ED, r24
    	LCDDR2 = LCD_Data[LCD_Bitplane][2];
    3640:	82 81       	ldd	r24, Z+2	; 0x02
    3642:	80 93 ee 00 	sts	0x00EE, r24
    	LCDDR5 = LCD_Data[LCD_Bitplane][3];
    3646:	83 81       	ldd	r24, Z+3	; 0x03
    3648:	80 93 f1 00 	sts	0x00F1, r24
    	LCDDR6 = LCD_Data[LCD_Bitplane][4];
    364c:	84 81       	ldd	r24, Z+4	; 0x04
    364e:	80 93 f2 00 	sts	0x00F2, r24
    	LCDDR7 = LCD_Data[LCD_Bitplane][5];
    3652:	85 81       	ldd	r24, Z+5	; 0x05
    3654:	80 93 f3 00 	sts	0x00F3, r24
    	LCDDR10 = LCD_Data[LCD_Bitplane][6];
    3658:	86 81       	ldd	r24, Z+6	; 0x06
    365a:	80 93 f6 00 	sts	0x00F6, r24
    	LCDDR11 = LCD_Data[LCD_Bitplane][7];
    365e:	87 81       	ldd	r24, Z+7	; 0x07
    3660:	80 93 f7 00 	sts	0x00F7, r24
    	LCDDR12 = LCD_Data[LCD_Bitplane][8];
    3664:	80 85       	ldd	r24, Z+8	; 0x08
    3666:	80 93 f8 00 	sts	0x00F8, r24
	}



	if (LCD_used_bitplanes == 1) {
    366a:	80 91 1b 01 	lds	r24, 0x011B
    366e:	81 30       	cpi	r24, 0x01	; 1
    3670:	29 f4       	brne	.+10     	; 0x367c <task_lcd_update+0x92>
		// only one bitplane used, no blinking
    	// Updated; disable LCD start of frame interrupt
    	LCDCRA &= ~(1<<LCDIE);
    3672:	80 91 e4 00 	lds	r24, 0x00E4
    3676:	87 7f       	andi	r24, 0xF7	; 247
    3678:	80 93 e4 00 	sts	0x00E4, r24
    367c:	08 95       	ret

0000367e <__vector_22>:
    task |= TASK_LCD;
}
#else
// optimized
ISR_NAKED ISR (LCD_vect) {
    asm volatile(
    367e:	f3 9a       	sbi	0x1e, 3	; 30
    3680:	18 95       	reti

00003682 <__vector_15>:
#elif defined(_AVR_IOM169_H_)
ISR(USART0_TX_vect)
#elif defined(_AVR_IOM16_H_) || defined(_AVR_IOM32_H_)
ISR(USART_TXC_vect)
#endif
{
    3682:	1f 92       	push	r1
    3684:	0f 92       	push	r0
    3686:	0f b6       	in	r0, 0x3f	; 63
    3688:	0f 92       	push	r0
    368a:	11 24       	eor	r1, r1
    368c:	8f 93       	push	r24
    368e:	ef 93       	push	r30
    3690:	ff 93       	push	r31
	#if defined COM_RS485
		// TODO: change rs485 to receive
		#error "code is not complete for rs485"
	#endif
	#ifdef _AVR_IOM169P_H_
		UCSR0B &= ~(_BV(TXCIE0)|_BV(TXEN0));
    3692:	e1 ec       	ldi	r30, 0xC1	; 193
    3694:	f0 e0       	ldi	r31, 0x00	; 0
    3696:	80 81       	ld	r24, Z
    3698:	87 7b       	andi	r24, 0xB7	; 183
    369a:	80 83       	st	Z, r24
	#elif defined(_AVR_IOM169_H_) || defined(_AVR_IOM16_H_) || defined(_AVR_IOM32_H_)
		UCSRB &= ~(_BV(TXCIE)|_BV(TXEN));
	#endif
}
    369c:	ff 91       	pop	r31
    369e:	ef 91       	pop	r30
    36a0:	8f 91       	pop	r24
    36a2:	0f 90       	pop	r0
    36a4:	0f be       	out	0x3f, r0	; 63
    36a6:	0f 90       	pop	r0
    36a8:	1f 90       	pop	r1
    36aa:	18 95       	reti

000036ac <RS_Init>:
	// Baudrate
	//long ubrr_val = ((F_CPU)/(baud*8L)-1);
	uint16_t ubrr_val = ((F_CPU)/(COM_BAUD_RATE*8L)-3);
 
	#ifdef _AVR_IOM169P_H_
		UCSR0A = _BV(U2X0);
    36ac:	82 e0       	ldi	r24, 0x02	; 2
    36ae:	80 93 c0 00 	sts	0x00C0, r24
		UBRR0H = (unsigned char)(ubrr_val>>8);
    36b2:	10 92 c5 00 	sts	0x00C5, r1
		UBRR0L = (unsigned char)(ubrr_val & 0xFF);
    36b6:	8d ec       	ldi	r24, 0xCD	; 205
    36b8:	80 93 c4 00 	sts	0x00C4, r24
		UCSR0C = (_BV(UCSZ00) | _BV(UCSZ01));     // Asynchron 8N1 
    36bc:	86 e0       	ldi	r24, 0x06	; 6
    36be:	80 93 c2 00 	sts	0x00C2, r24
        #endif
	#else
		#error 'your CPU is not supported !'
	#endif
	#if !defined(_AVR_IOM16_H_) && !defined(_AVR_IOM32_H_)
    PCMSK0 |= (1<<PCINT0); // activate interrupt
    36c2:	eb e6       	ldi	r30, 0x6B	; 107
    36c4:	f0 e0       	ldi	r31, 0x00	; 0
    36c6:	80 81       	ld	r24, Z
    36c8:	81 60       	ori	r24, 0x01	; 1
    36ca:	80 83       	st	Z, r24
  #endif
}
    36cc:	08 95       	ret

000036ce <RS_startSend>:
 *  - we send the first char to serial port
 *  - start the interrupt
 ******************************************************************************/
void RS_startSend(void)
{
	cli();
    36ce:	f8 94       	cli
	#if defined COM_RS485
		// TODO: change rs485 to transmit
		#error "code is not complete for rs485"
	#endif
	#ifdef _AVR_IOM169P_H_
		if ((UCSR0B & _BV(UDRIE0))==0) {
    36d0:	80 91 c1 00 	lds	r24, 0x00C1
    36d4:	85 fd       	sbrc	r24, 5
    36d6:	0f c0       	rjmp	.+30     	; 0x36f6 <RS_startSend+0x28>
			UCSR0B &= ~(_BV(TXCIE0));
    36d8:	80 91 c1 00 	lds	r24, 0x00C1
    36dc:	8f 7b       	andi	r24, 0xBF	; 191
    36de:	80 93 c1 00 	sts	0x00C1, r24
			UCSR0A |= _BV(TXC0); // clear interrupt flag
    36e2:	80 91 c0 00 	lds	r24, 0x00C0
    36e6:	80 64       	ori	r24, 0x40	; 64
    36e8:	80 93 c0 00 	sts	0x00C0, r24
			UCSR0B |= _BV(UDRIE0) | _BV(TXEN0);
    36ec:	80 91 c1 00 	lds	r24, 0x00C1
    36f0:	88 62       	ori	r24, 0x28	; 40
    36f2:	80 93 c1 00 	sts	0x00C1, r24
			UCSRA |= _BV(TXC); // clear interrupt flag
			UCSRB |= _BV(UDRIE)  | _BV(TXEN); 
			//UDR = COM_tx_char_isr(); // done in interrupt
		}
	#endif
	sei();
    36f6:	78 94       	sei
}
    36f8:	08 95       	ret

000036fa <__vector_14>:
#ifdef _AVR_IOM169P_H_
ISR(USART0_UDRE_vect)
#elif defined(_AVR_IOM169_H_) || defined(_AVR_IOM16_H_)  || defined(_AVR_IOM32_H_)
ISR(USART_UDRE_vect)
#endif
{
    36fa:	1f 92       	push	r1
    36fc:	0f 92       	push	r0
    36fe:	0f b6       	in	r0, 0x3f	; 63
    3700:	0f 92       	push	r0
    3702:	11 24       	eor	r1, r1
    3704:	2f 93       	push	r18
    3706:	3f 93       	push	r19
    3708:	4f 93       	push	r20
    370a:	5f 93       	push	r21
    370c:	6f 93       	push	r22
    370e:	7f 93       	push	r23
    3710:	8f 93       	push	r24
    3712:	9f 93       	push	r25
    3714:	af 93       	push	r26
    3716:	bf 93       	push	r27
    3718:	ef 93       	push	r30
    371a:	ff 93       	push	r31
	char c;
	if ((c=COM_tx_char_isr())!='\0')
    371c:	0e 94 3e 08 	call	0x107c	; 0x107c <COM_tx_char_isr>
    3720:	88 23       	and	r24, r24
    3722:	19 f0       	breq	.+6      	; 0x372a <__vector_14+0x30>
	{
		#ifdef _AVR_IOM169P_H_
			UDR0 = c;
    3724:	80 93 c6 00 	sts	0x00C6, r24
    3728:	0f c0       	rjmp	.+30     	; 0x3748 <__vector_14+0x4e>
		#endif
	}
	else	// no more chars, disable Interrupt
	{
		#ifdef _AVR_IOM169P_H_
			UCSR0B &= ~(_BV(UDRIE0));
    372a:	80 91 c1 00 	lds	r24, 0x00C1
    372e:	8f 7d       	andi	r24, 0xDF	; 223
    3730:	80 93 c1 00 	sts	0x00C1, r24
			UCSR0A |= _BV(TXC0); // clear interrupt flag
    3734:	80 91 c0 00 	lds	r24, 0x00C0
    3738:	80 64       	ori	r24, 0x40	; 64
    373a:	80 93 c0 00 	sts	0x00C0, r24
			UCSR0B |= (_BV(TXCIE0));
    373e:	80 91 c1 00 	lds	r24, 0x00C1
    3742:	80 64       	ori	r24, 0x40	; 64
    3744:	80 93 c1 00 	sts	0x00C1, r24
			UCSRB &= ~(_BV(UDRIE));
			UCSRA |= _BV(TXC); // clear interrupt flag
			UCSRB |= (_BV(TXCIE));
		#endif
	}
}
    3748:	ff 91       	pop	r31
    374a:	ef 91       	pop	r30
    374c:	bf 91       	pop	r27
    374e:	af 91       	pop	r26
    3750:	9f 91       	pop	r25
    3752:	8f 91       	pop	r24
    3754:	7f 91       	pop	r23
    3756:	6f 91       	pop	r22
    3758:	5f 91       	pop	r21
    375a:	4f 91       	pop	r20
    375c:	3f 91       	pop	r19
    375e:	2f 91       	pop	r18
    3760:	0f 90       	pop	r0
    3762:	0f be       	out	0x3f, r0	; 63
    3764:	0f 90       	pop	r0
    3766:	1f 90       	pop	r1
    3768:	18 95       	reti

0000376a <__vector_13>:
#elif defined(_AVR_IOM169_H_)
ISR(USART0_RX_vect)
#elif defined(_AVR_IOM16_H_) || defined(_AVR_IOM32_H_)
ISR(USART_RXC_vect)
#endif
{
    376a:	1f 92       	push	r1
    376c:	0f 92       	push	r0
    376e:	0f b6       	in	r0, 0x3f	; 63
    3770:	0f 92       	push	r0
    3772:	11 24       	eor	r1, r1
    3774:	2f 93       	push	r18
    3776:	3f 93       	push	r19
    3778:	4f 93       	push	r20
    377a:	5f 93       	push	r21
    377c:	6f 93       	push	r22
    377e:	7f 93       	push	r23
    3780:	8f 93       	push	r24
    3782:	9f 93       	push	r25
    3784:	af 93       	push	r26
    3786:	bf 93       	push	r27
    3788:	ef 93       	push	r30
    378a:	ff 93       	push	r31
	#ifdef _AVR_IOM169P_H_
		COM_rx_char_isr(UDR0);	// Add char to input buffer
    378c:	80 91 c6 00 	lds	r24, 0x00C6
    3790:	0e 94 50 08 	call	0x10a0	; 0x10a0 <COM_rx_char_isr>
		//UCSR0B &= ~(_BV(RXEN0)|_BV(RXCIE0)); // disable receive
		UCSR0B &= ~(_BV(RXCIE0)); // disable receive
    3794:	e1 ec       	ldi	r30, 0xC1	; 193
    3796:	f0 e0       	ldi	r31, 0x00	; 0
    3798:	80 81       	ld	r24, Z
    379a:	8f 77       	andi	r24, 0x7F	; 127
    379c:	80 83       	st	Z, r24
		#if !defined(MASTER_CONFIG_H)
			UCSRB &= ~(_BV(RXEN)|_BV(RXCIE)); // disable receive
		#endif
	#endif
	#if !defined(_AVR_IOM16_H_) && !defined(_AVR_IOM32_H_)
    PCMSK0 |= (1<<PCINT0); // activate interrupt
    379e:	eb e6       	ldi	r30, 0x6B	; 107
    37a0:	f0 e0       	ldi	r31, 0x00	; 0
    37a2:	80 81       	ld	r24, Z
    37a4:	81 60       	ori	r24, 0x01	; 1
    37a6:	80 83       	st	Z, r24
  #endif
}
    37a8:	ff 91       	pop	r31
    37aa:	ef 91       	pop	r30
    37ac:	bf 91       	pop	r27
    37ae:	af 91       	pop	r26
    37b0:	9f 91       	pop	r25
    37b2:	8f 91       	pop	r24
    37b4:	7f 91       	pop	r23
    37b6:	6f 91       	pop	r22
    37b8:	5f 91       	pop	r21
    37ba:	4f 91       	pop	r20
    37bc:	3f 91       	pop	r19
    37be:	2f 91       	pop	r18
    37c0:	0f 90       	pop	r0
    37c2:	0f be       	out	0x3f, r0	; 63
    37c4:	0f 90       	pop	r0
    37c6:	1f 90       	pop	r1
    37c8:	18 95       	reti

000037ca <__mulsi3>:
    37ca:	62 9f       	mul	r22, r18
    37cc:	d0 01       	movw	r26, r0
    37ce:	73 9f       	mul	r23, r19
    37d0:	f0 01       	movw	r30, r0
    37d2:	82 9f       	mul	r24, r18
    37d4:	e0 0d       	add	r30, r0
    37d6:	f1 1d       	adc	r31, r1
    37d8:	64 9f       	mul	r22, r20
    37da:	e0 0d       	add	r30, r0
    37dc:	f1 1d       	adc	r31, r1
    37de:	92 9f       	mul	r25, r18
    37e0:	f0 0d       	add	r31, r0
    37e2:	83 9f       	mul	r24, r19
    37e4:	f0 0d       	add	r31, r0
    37e6:	74 9f       	mul	r23, r20
    37e8:	f0 0d       	add	r31, r0
    37ea:	65 9f       	mul	r22, r21
    37ec:	f0 0d       	add	r31, r0
    37ee:	99 27       	eor	r25, r25
    37f0:	72 9f       	mul	r23, r18
    37f2:	b0 0d       	add	r27, r0
    37f4:	e1 1d       	adc	r30, r1
    37f6:	f9 1f       	adc	r31, r25
    37f8:	63 9f       	mul	r22, r19
    37fa:	b0 0d       	add	r27, r0
    37fc:	e1 1d       	adc	r30, r1
    37fe:	f9 1f       	adc	r31, r25
    3800:	bd 01       	movw	r22, r26
    3802:	cf 01       	movw	r24, r30
    3804:	11 24       	eor	r1, r1
    3806:	08 95       	ret

00003808 <__udivmodqi4>:
    3808:	99 1b       	sub	r25, r25
    380a:	79 e0       	ldi	r23, 0x09	; 9
    380c:	04 c0       	rjmp	.+8      	; 0x3816 <__udivmodqi4_ep>

0000380e <__udivmodqi4_loop>:
    380e:	99 1f       	adc	r25, r25
    3810:	96 17       	cp	r25, r22
    3812:	08 f0       	brcs	.+2      	; 0x3816 <__udivmodqi4_ep>
    3814:	96 1b       	sub	r25, r22

00003816 <__udivmodqi4_ep>:
    3816:	88 1f       	adc	r24, r24
    3818:	7a 95       	dec	r23
    381a:	c9 f7       	brne	.-14     	; 0x380e <__udivmodqi4_loop>
    381c:	80 95       	com	r24
    381e:	08 95       	ret

00003820 <__divmodqi4>:
    3820:	87 fb       	bst	r24, 7
    3822:	08 2e       	mov	r0, r24
    3824:	06 26       	eor	r0, r22
    3826:	87 fd       	sbrc	r24, 7
    3828:	81 95       	neg	r24
    382a:	67 fd       	sbrc	r22, 7
    382c:	61 95       	neg	r22
    382e:	ec df       	rcall	.-40     	; 0x3808 <__udivmodqi4>
    3830:	0e f4       	brtc	.+2      	; 0x3834 <__divmodqi4_1>
    3832:	91 95       	neg	r25

00003834 <__divmodqi4_1>:
    3834:	07 fc       	sbrc	r0, 7
    3836:	81 95       	neg	r24

00003838 <__divmodqi4_exit>:
    3838:	08 95       	ret

0000383a <__udivmodhi4>:
    383a:	aa 1b       	sub	r26, r26
    383c:	bb 1b       	sub	r27, r27
    383e:	51 e1       	ldi	r21, 0x11	; 17
    3840:	07 c0       	rjmp	.+14     	; 0x3850 <__udivmodhi4_ep>

00003842 <__udivmodhi4_loop>:
    3842:	aa 1f       	adc	r26, r26
    3844:	bb 1f       	adc	r27, r27
    3846:	a6 17       	cp	r26, r22
    3848:	b7 07       	cpc	r27, r23
    384a:	10 f0       	brcs	.+4      	; 0x3850 <__udivmodhi4_ep>
    384c:	a6 1b       	sub	r26, r22
    384e:	b7 0b       	sbc	r27, r23

00003850 <__udivmodhi4_ep>:
    3850:	88 1f       	adc	r24, r24
    3852:	99 1f       	adc	r25, r25
    3854:	5a 95       	dec	r21
    3856:	a9 f7       	brne	.-22     	; 0x3842 <__udivmodhi4_loop>
    3858:	80 95       	com	r24
    385a:	90 95       	com	r25
    385c:	bc 01       	movw	r22, r24
    385e:	cd 01       	movw	r24, r26
    3860:	08 95       	ret

00003862 <__divmodhi4>:
    3862:	97 fb       	bst	r25, 7
    3864:	09 2e       	mov	r0, r25
    3866:	07 26       	eor	r0, r23
    3868:	0a d0       	rcall	.+20     	; 0x387e <__divmodhi4_neg1>
    386a:	77 fd       	sbrc	r23, 7
    386c:	04 d0       	rcall	.+8      	; 0x3876 <__divmodhi4_neg2>
    386e:	e5 df       	rcall	.-54     	; 0x383a <__udivmodhi4>
    3870:	06 d0       	rcall	.+12     	; 0x387e <__divmodhi4_neg1>
    3872:	00 20       	and	r0, r0
    3874:	1a f4       	brpl	.+6      	; 0x387c <__divmodhi4_exit>

00003876 <__divmodhi4_neg2>:
    3876:	70 95       	com	r23
    3878:	61 95       	neg	r22
    387a:	7f 4f       	sbci	r23, 0xFF	; 255

0000387c <__divmodhi4_exit>:
    387c:	08 95       	ret

0000387e <__divmodhi4_neg1>:
    387e:	f6 f7       	brtc	.-4      	; 0x387c <__divmodhi4_exit>
    3880:	90 95       	com	r25
    3882:	81 95       	neg	r24
    3884:	9f 4f       	sbci	r25, 0xFF	; 255
    3886:	08 95       	ret

00003888 <__udivmodsi4>:
    3888:	a1 e2       	ldi	r26, 0x21	; 33
    388a:	1a 2e       	mov	r1, r26
    388c:	aa 1b       	sub	r26, r26
    388e:	bb 1b       	sub	r27, r27
    3890:	fd 01       	movw	r30, r26
    3892:	0d c0       	rjmp	.+26     	; 0x38ae <__udivmodsi4_ep>

00003894 <__udivmodsi4_loop>:
    3894:	aa 1f       	adc	r26, r26
    3896:	bb 1f       	adc	r27, r27
    3898:	ee 1f       	adc	r30, r30
    389a:	ff 1f       	adc	r31, r31
    389c:	a2 17       	cp	r26, r18
    389e:	b3 07       	cpc	r27, r19
    38a0:	e4 07       	cpc	r30, r20
    38a2:	f5 07       	cpc	r31, r21
    38a4:	20 f0       	brcs	.+8      	; 0x38ae <__udivmodsi4_ep>
    38a6:	a2 1b       	sub	r26, r18
    38a8:	b3 0b       	sbc	r27, r19
    38aa:	e4 0b       	sbc	r30, r20
    38ac:	f5 0b       	sbc	r31, r21

000038ae <__udivmodsi4_ep>:
    38ae:	66 1f       	adc	r22, r22
    38b0:	77 1f       	adc	r23, r23
    38b2:	88 1f       	adc	r24, r24
    38b4:	99 1f       	adc	r25, r25
    38b6:	1a 94       	dec	r1
    38b8:	69 f7       	brne	.-38     	; 0x3894 <__udivmodsi4_loop>
    38ba:	60 95       	com	r22
    38bc:	70 95       	com	r23
    38be:	80 95       	com	r24
    38c0:	90 95       	com	r25
    38c2:	9b 01       	movw	r18, r22
    38c4:	ac 01       	movw	r20, r24
    38c6:	bd 01       	movw	r22, r26
    38c8:	cf 01       	movw	r24, r30
    38ca:	08 95       	ret

000038cc <__divmodsi4>:
    38cc:	97 fb       	bst	r25, 7
    38ce:	09 2e       	mov	r0, r25
    38d0:	05 26       	eor	r0, r21
    38d2:	0e d0       	rcall	.+28     	; 0x38f0 <__divmodsi4_neg1>
    38d4:	57 fd       	sbrc	r21, 7
    38d6:	04 d0       	rcall	.+8      	; 0x38e0 <__divmodsi4_neg2>
    38d8:	d7 df       	rcall	.-82     	; 0x3888 <__udivmodsi4>
    38da:	0a d0       	rcall	.+20     	; 0x38f0 <__divmodsi4_neg1>
    38dc:	00 1c       	adc	r0, r0
    38de:	38 f4       	brcc	.+14     	; 0x38ee <__divmodsi4_exit>

000038e0 <__divmodsi4_neg2>:
    38e0:	50 95       	com	r21
    38e2:	40 95       	com	r20
    38e4:	30 95       	com	r19
    38e6:	21 95       	neg	r18
    38e8:	3f 4f       	sbci	r19, 0xFF	; 255
    38ea:	4f 4f       	sbci	r20, 0xFF	; 255
    38ec:	5f 4f       	sbci	r21, 0xFF	; 255

000038ee <__divmodsi4_exit>:
    38ee:	08 95       	ret

000038f0 <__divmodsi4_neg1>:
    38f0:	f6 f7       	brtc	.-4      	; 0x38ee <__divmodsi4_exit>
    38f2:	90 95       	com	r25
    38f4:	80 95       	com	r24
    38f6:	70 95       	com	r23
    38f8:	61 95       	neg	r22
    38fa:	7f 4f       	sbci	r23, 0xFF	; 255
    38fc:	8f 4f       	sbci	r24, 0xFF	; 255
    38fe:	9f 4f       	sbci	r25, 0xFF	; 255
    3900:	08 95       	ret

00003902 <__prologue_saves__>:
    3902:	2f 92       	push	r2
    3904:	3f 92       	push	r3
    3906:	4f 92       	push	r4
    3908:	5f 92       	push	r5
    390a:	6f 92       	push	r6
    390c:	7f 92       	push	r7
    390e:	8f 92       	push	r8
    3910:	9f 92       	push	r9
    3912:	af 92       	push	r10
    3914:	bf 92       	push	r11
    3916:	cf 92       	push	r12
    3918:	df 92       	push	r13
    391a:	ef 92       	push	r14
    391c:	ff 92       	push	r15
    391e:	0f 93       	push	r16
    3920:	1f 93       	push	r17
    3922:	cf 93       	push	r28
    3924:	df 93       	push	r29
    3926:	cd b7       	in	r28, 0x3d	; 61
    3928:	de b7       	in	r29, 0x3e	; 62
    392a:	ca 1b       	sub	r28, r26
    392c:	db 0b       	sbc	r29, r27
    392e:	0f b6       	in	r0, 0x3f	; 63
    3930:	f8 94       	cli
    3932:	de bf       	out	0x3e, r29	; 62
    3934:	0f be       	out	0x3f, r0	; 63
    3936:	cd bf       	out	0x3d, r28	; 61
    3938:	09 94       	ijmp

0000393a <__epilogue_restores__>:
    393a:	2a 88       	ldd	r2, Y+18	; 0x12
    393c:	39 88       	ldd	r3, Y+17	; 0x11
    393e:	48 88       	ldd	r4, Y+16	; 0x10
    3940:	5f 84       	ldd	r5, Y+15	; 0x0f
    3942:	6e 84       	ldd	r6, Y+14	; 0x0e
    3944:	7d 84       	ldd	r7, Y+13	; 0x0d
    3946:	8c 84       	ldd	r8, Y+12	; 0x0c
    3948:	9b 84       	ldd	r9, Y+11	; 0x0b
    394a:	aa 84       	ldd	r10, Y+10	; 0x0a
    394c:	b9 84       	ldd	r11, Y+9	; 0x09
    394e:	c8 84       	ldd	r12, Y+8	; 0x08
    3950:	df 80       	ldd	r13, Y+7	; 0x07
    3952:	ee 80       	ldd	r14, Y+6	; 0x06
    3954:	fd 80       	ldd	r15, Y+5	; 0x05
    3956:	0c 81       	ldd	r16, Y+4	; 0x04
    3958:	1b 81       	ldd	r17, Y+3	; 0x03
    395a:	aa 81       	ldd	r26, Y+2	; 0x02
    395c:	b9 81       	ldd	r27, Y+1	; 0x01
    395e:	ce 0f       	add	r28, r30
    3960:	d1 1d       	adc	r29, r1
    3962:	0f b6       	in	r0, 0x3f	; 63
    3964:	f8 94       	cli
    3966:	de bf       	out	0x3e, r29	; 62
    3968:	0f be       	out	0x3f, r0	; 63
    396a:	cd bf       	out	0x3d, r28	; 61
    396c:	ed 01       	movw	r28, r26
    396e:	08 95       	ret

00003970 <__tablejump2__>:
    3970:	ee 0f       	add	r30, r30
    3972:	ff 1f       	adc	r31, r31

00003974 <__tablejump__>:
    3974:	05 90       	lpm	r0, Z+
    3976:	f4 91       	lpm	r31, Z+
    3978:	e0 2d       	mov	r30, r0
    397a:	09 94       	ijmp

0000397c <_exit>:
    397c:	f8 94       	cli

0000397e <__stop_program>:
    397e:	ff cf       	rjmp	.-2      	; 0x397e <__stop_program>
